******************************************************************************
                  TI ARM Linker PC v16.9.2                     
******************************************************************************
>> Linked Sun Aug 13 23:45:01 2017

OUTPUT FILE NAME:   <ZCoord.out>
ENTRY POINT SYMBOL: "ResetISR"  address: 00225609


MEMORY CONFIGURATION

         name            origin    length      used     unused   attr    fill
----------------------  --------  ---------  --------  --------  ----  --------
  FLASH                 00200000   0007ffd4  0002c1d7  00053dfd  R  X
  FLASH_CCA             0027ffd4   0000000c  0000000c  00000000  R  X
  SRAM_NON_RETENTION    20000000   00004000  00000000  00004000  RW X
  SRAM_RETENTION        20004000   00004000  000032ad  00000d53  RW X


SEGMENT ALLOCATION MAP

run origin  load origin   length   init length attrs members
----------  ----------- ---------- ----------- ----- -------
00200000    00200000    0002c1d8   0002c1d8    r-x
  00200000    00200000    00000100   00000100    r-- .intvecs
  00200100    00200100    0002ad40   0002ad40    r-x .text
  0022ae40    0022ae40    000010cb   000010cb    r-- .const
  0022bf0c    0022bf0c    000000cc   000000cc    r-- .rodata
  0022bfd8    0022bfd8    00000200   00000200    r-- .cinit
0027ffd4    0027ffd4    0000000c   0000000c    r--
  0027ffd4    0027ffd4    0000000c   0000000c    r-- .flashcca
20004000    20004000    000031ae   00000000    rw-
  20004000    20004000    00000100   00000000    rw- .vtable
  20004100    20004100    0000284b   00000000    rw- .bss
  2000694c    2000694c    00000862   00000000    rw- .data
20007f00    20007f00    00000100   00000000    rw-
  20007f00    20007f00    00000100   00000000    rw- .stack


SECTION ALLOCATION MAP

 output                                  attributes/
section   page    origin      length       input sections
--------  ----  ----------  ----------   ----------------
.intvecs   0    00200000    00000100     
                  00200000    00000100     cx2538_startup_ccs.obj (.intvecs)

.text      0    00200100    0002ad40     
                  00200100    000034a0     TIMAC-CC2538.a : mac_beacon.o (.text)
                  002035a0    00002678     AllDevice.a : nwk_util.o (.text)
                  00205c18    000019b4                 : nwk.o (.text)
                  002075cc    000018f0                 : rtg.o (.text)
                  00208ebc    000016e0                 : APSMEDE.o (.text)
                  0020a59c    00000d34     zcl_sampleapps_ui.obj (.text:UI_UpdateLcd)
                  0020b2d0    00000af0     AllDevice.a : dGP_stub.o (.text)
                  0020bdc0    00000a28                 : AssocList.o (.text)
                  0020c7e8    00000914                 : NLMEDE.o (.text)
                  0020d0fc    00000834                 : APS.o (.text)
                  0020d930    00000774                 : ssp.o (.text)
                  0020e0a4    000005d8                 : aps_frag.o (.text)
                  0020e67c    00000530                 : nwk_bufs.o (.text)
                  0020ebac    000004c4     ZStackLib_Coord.lib : mac_rx.obj (.text:rxStartIsr)
                  0020f070    000004ac     AllDevice.a : AddrMgr.o (.text)
                  0020f51c    00000414                 : NLMEDE_CB.o (.text)
                  0020f930    0000039c     ZStackLib_Coord.lib : zcl.obj (.text:zcl_ProcessMessageMSG)
                  0020fccc    0000034a                         : zcl.obj (.text:zclProcessInWriteUndividedCmd)
                  00210016    00000002                         : ZDApp.obj (.text:AddrMgrWriteNVRequest)
                  00210018    00000338                         : gp_proxyTbl.obj (.text:pt_ZclReadGetProxyEntry)
                  00210350    00000330                         : ZDObject.obj (.text:ZDO_ProcessMatchDescReq)
                  00210680    0000031c                         : zmac_cb.obj (.text:MAC_CbackEvent)
                  0021099c    000002fc                         : osal_nv.obj (.text:osal_nv_write)
                  00210c98    000002f4                         : ZDObject.obj (.text:ZDO_ProcessMgmtLqiReq)
                  00210f8c    000002f4                         : ZDProfile.obj (.text:zdpProcessAddrReq)
                  00211280    000002e0     AllDevice.a : APSMEDE_CB.o (.text)
                  00211560    000002a8     ZStackLib_Coord.lib : bdb.obj (.text:bdb_reportCommissioningState)
                  00211808    000002a0                         : bdb.obj (.text:bdb_event_loop)
                  00211aa8    000002a0                         : gp_common.obj (.text:zclGp_GpProxyTableReqCB)
                  00211d48    00000290                         : mac_mcu.obj (.text:macMcuInit)
                  00211fd8    00000288                         : gp_proxyTbl.obj (.text:gp_PairingUpdateProxyTlb)
                  00212260    00000284                         : ZDObject.obj (.text:ZDMatchSendState)
                  002124e4    00000280                         : gp_common.obj (.text:gp_ZclPairingParse)
                  00212764    0000026a     AllDevice.a : reflecttrack.o (.text)
                  002129ce    00000002     cx2538_startup_ccs.obj (.text:FaultISR)
                  002129d0    00000260     ZStackLib_Coord.lib : AF.obj (.text:AF_DataRequest)
                  00212c30    00000260                         : gp_common.obj (.text:zclGp_DataIndParse)
                  00212e90    00000254                         : BindingTable.obj (.text:bindAddEntry)
                  002130e4    00000254     zcl_sampleapps_ui.obj (.text:uiActionProcessPrepareInstallCode)
                  00213338    00000248     AllDevice.a : aps_groups.o (.text)
                  00213580    00000238     ZStackLib_Coord.lib : ZDObject.obj (.text:ZDO_MatchEndDeviceBind)
                  002137b8    00000238                         : zcl.obj (.text:zclProcessInWriteCmd)
                  002139f0    00000232                         : zcl.obj (.text:zclSerializeData)
                  00213c22    00000002                         : hal_drivers.obj (.text:Hal_ProcessPoll)
                  00213c24    0000022c     AllDevice.a : aps_util.o (.text)
                  00213e50    00000228     ZStackLib_Coord.lib : gp_proxyTbl.obj (.text:gp_UpdateProxyTlb)
                  00214078    0000021c                         : ccm.obj (.text:CCMInvAuthDecryptStart)
                  00214294    00000210                         : ccm.obj (.text:CCMAuthEncryptStart)
                  002144a4    00000204                         : gp_common.obj (.text:zclGp_GpResponseCommandCB)
                  002146a8    00000200                         : bdb_FindingAndBinding.obj (.text:bdb_checkMatchingEndpoints)
                  002148a8    00000200                         : bdb.obj (.text:bdb_startResumeCommissioningProcess)
                  00214aa8    000001f8                         : osal_nv.obj (.text:compactPage)
                  00214ca0    000001ec                         : ZDApp.obj (.text:ZDApp_event_loop)
                  00214e8c    000001e8                         : mac_pib.obj (.text:MAC_MlmeSetReq)
                  00215074    000001e8                         : zcl_green_power.obj (.text:zclGp_ProcessInProxyBasic)
                  0021525c    000001e4                         : zcl_green_power.obj (.text:gp_addPairedSinksToMsgQueue)
                  00215440    000001e0                         : gp_common.obj (.text:zclGp_ManteinanceIndParse)
                  00215620    000001dc                         : osal_nv.obj (.text:xferBuf)
                  002157fc    000001d8                         : gp_common.obj (.text:gp_SecurityOperationProxy)
                  002159d4    000001d0                         : ioc.obj (.text:IOCPinConfigPeriphInput)
                  00215ba4    000001d0                         : ZDProfile.obj (.text:ZDP_SimpleDescMsg)
                  00215d74    000001d0                         : bdb.obj (.text:bdb_StartCommissioning)
                  00215f44    000001cc                         : armcm3flashutil.obj (.text:flashWrite)
                  00216110    000001c6                         : ZDObject.obj (.text:ZDO_ProcessParentAnnce)
                  002162d6    00000002     cx2538_startup_ccs.obj (.text:NmiSR)
                  002162d8    000001c0     ZStackLib_Coord.lib : ZDObject.obj (.text:ZDO_ProcessDeviceAnnce)
                  00216498    000001c0                         : osal_nv.obj (.text:writeBuf)
                  00216658    000001bc                         : osal_nv.obj (.text:initNV)
                  00216814    000001ba     AllDevice.a : ssp_hash.o (.text)
                  002169ce    00000002     ZStackLib_Coord.lib : ZDApp.obj (.text:ZDApp_NVUpdate)
                  002169d0    000001b4                         : osal_nv.obj (.text:writeItem)
                  00216b84    000001b0                         : AF.obj (.text:afIncomingData)
                  00216d34    000001ac                         : ZDApp.obj (.text:ZDO_beaconNotifyIndCB)
                  00216ee0    000001ac                         : osal_nv.obj (.text:initPage)
                  0021708c    000001a8                         : nwk_globals.obj (.text:NIB_init)
                  00217234    000001a8                         : gp_proxyTbl.obj (.text:gp_pairingSetProxyTblOptions)
                  002173dc    000001a4                         : zcl_green_power.obj (.text:zclGp_SendGpCommissioningNotificationCommand)
                  00217580    000001a0                         : hal_led.obj (.text:HalLedUpdate)
                  00217720    00000198                         : zcl_green_power.obj (.text:zclGp_SendGpNotificationCommand)
                  002178b8    00000196                         : zcl.obj (.text:zcl_SendReadRsp)
                  00217a4e    00000002                         : ZDApp.obj (.text:ZDApp_SaveNetworkStateEvt)
                  00217a50    00000194     AllDevice.a : cGP_stub.o (.text)
                  00217be4    00000194     ZStackLib_Coord.lib : zcl.obj (.text:zclParseInReadRspCmd)
                  00217d78    00000190                         : zcl.obj (.text:zcl_SendCommand)
                  00217f08    0000018c                         : mac_tx.obj (.text:macTxFrame)
                  00218094    0000018c                         : OSAL_Memory.obj (.text:osal_mem_alloc)
                  00218220    00000184                         : ZDProfile.obj (.text:ZDP_MgmtBindRsp)
                  002183a4    00000180                         : OSAL_Timers.obj (.text:osalTimerUpdate)
                  00218524    0000017e                         : zcl.obj (.text:zclProcessInDiscCmd)
                  002186a2    00000002                         : bdb.obj (.text:bdb_parentLost)
                  002186a4    00000178                         : ZDNwkMgr.obj (.text:ZDNwkMgr_ProcessMgmtNwkUpdateReq)
                  0021881c    00000178                         : ZDProfile.obj (.text:ZDP_MgmtLqiRsp)
                  00218994    00000174                         : aes.obj (.text:AESLoadKey)
                  00218b08    00000170                         : io_pin_int.obj (.text:ioPinIntRegister)
                  00218c78    00000170                         : zcl.obj (.text:zclParseInWriteCmd)
                  00218de8    0000016c                         : ZDSecMgr.obj (.text:APSME_TCLinkKeyLoad)
                  00218f54    00000168     zcl_sampleapps_ui.obj (.text:UI_MainStateMachine)
                  002190bc    00000166     ZStackLib_Coord.lib : ZDObject.obj (.text:ZDO_ParseSimpleDescBuf)
                  00219222    00000002                         : bdb.obj (.text:bdb_processTimeout)
                  00219224    00000164                         : zcl.obj (.text:zcl_event_loop)
                  00219388    0000015c                         : zcl.obj (.text:zclFindNextCmdRec)
                  002194e4    00000158                         : ZDSecMgr.obj (.text:APSME_TCLinkKeySync)
                  0021963c    00000154                         : osal_nv.obj (.text:initItem)
                  00219790    00000154                         : mac_rx.obj (.text:rxFcsIsr)
                  002198e4    0000014c                         : ZDApp.obj (.text:ZDOInitDeviceEx)
                  00219a30    0000014c     ZMain.obj (.text:zmain_ext_addr)
                  00219b7c    00000146     ZStackLib_Coord.lib : zcl.obj (.text:zclProcessInReadCmd)
                  00219cc2    00000002                         : hal_assert.obj (.text:halAssertHandler)
                  00219cc4    00000144                         : BindingTable.obj (.text:BindCopyBackupToNewNV)
                  00219e08    00000144                         : zcl.obj (.text:zclGetDataTypeLength)
                  00219f4c    00000134                         : ccm.obj (.text:CCMInvAuthDecryptGetResult)
                  0021a080    00000134                         : ZDNwkMgr.obj (.text:ZDNwkMgr_event_loop)
                  0021a1b4    00000134                         : zcl.obj (.text:zclProcessInDiscAttrsExtCmd)
                  0021a2e8    00000130                         : ZDProfile.obj (.text:ZDP_ParentAnnce)
                  0021a418    00000130                         : bdb.obj (.text:bdb_TCProcessJoiningList)
                  0021a548    00000130                         : gp_proxyTbl.obj (.text:gp_CheckAnnouncedDevice)
                  0021a678    00000130     zcl_sampleapps_ui.obj (.text:uiActionProcessConfigurePanId)
                  0021a7a8    0000012c     ZStackLib_Coord.lib : mac_rx.obj (.text:rxAddrIsr)
                  0021a8d4    00000128                         : ZDProfile.obj (.text:ZDP_NodeDescMsg)
                  0021a9fc    00000128                         : gp_proxyTbl.obj (.text:pt_updateLightweightUnicastSink)
                  0021ab24    00000124                         : gp_common.obj (.text:GP_DataInd)
                  0021ac48    00000120                         : bdb_FindingAndBinding.obj (.text:bdb_ProcessRespondentList)
                  0021ad68    00000120                         : lcd_dogm128_6.obj (.text:lcdBufferPrintString)
                  0021ae88    0000011e                         : zcl.obj (.text:zclProcessInDiscAttrsCmd)
                  0021afa6    00000002                         : armcm3flashutil.obj (.text:initFlash)
                  0021afa8    0000011c                         : hal_led.obj (.text:HalLedBlink)
                  0021b0c4    00000118                         : ZDSecMgr.obj (.text:ZDSecMgrNwkKeyInit)
                  0021b1dc    00000118                         : bdb.obj (.text:bdb_TCAddJoiningDevice)
                  0021b2f4    00000118                         : mac_csp_tx.obj (.text:macCspTxRequestAckTimeoutCallback)
                  0021b40c    00000114                         : gp_common.obj (.text:GP_SecReq)
                  0021b520    00000114                         : ZDApp.obj (.text:ZDO_NetworkFormationConfirmCB)
                  0021b634    0000010c                         : ZDSecMgr.obj (.text:APSME_TCLinkKeyInit)
                  0021b740    0000010c                         : ZDObject.obj (.text:ZDO_ProcessBindUnbindReq)
                  0021b84c    00000108                         : BindingTable.obj (.text:bindFindExisting)
                  0021b954    00000108     zcl_samplelight.obj (.text:zclSampleLight_Init)
                  0021ba5c    00000108     ZStackLib_Coord.lib : zcl.obj (.text:zcl_SendDiscoverAttrsExtRsp)
                  0021bb64    00000100                         : zcl.obj (.text:zcl_SendDiscoverCmdsRspCmd)
                  0021bc64    000000fc                         : ZDApp.obj (.text:ZDApp_ProcessSecEvent)
                  0021bd60    000000fc                         : ZDNwkMgr.obj (.text:ZDNwkMgr_BuildAndSendUpdateNotify)
                  0021be5c    000000fc                         : ZDObject.obj (.text:ZDO_ParseAddrRsp)
                  0021bf58    000000fc                         : ZDObject.obj (.text:ZDO_ProcessMgmtBindReq)
                  0021c054    000000fc                         : ZDProfile.obj (.text:ZDP_BindUnbindReq)
                  0021c150    000000fc                         : AF.obj (.text:afBuildMSGIncoming)
                  0021c24c    000000fc     zcl_sampleapps_ui.obj (.text:uiActionProcessConfigureChannels)
                  0021c348    000000f6     ZStackLib_Coord.lib : ZDObject.obj (.text:ZDO_ParseEndDeviceBindReq)
                  0021c43e    000000f6                         : zcl.obj (.text:zcl_SendDiscoverAttrsRspCmd)
                  0021c534    000000f4                         : aes.obj (.text:AESECBStart)
                  0021c628    000000f4                         : ZDNwkMgr.obj (.text:ZDNwkMgr_CheckForChannelInterference)
                  0021c71c    000000f4                         : mac_autopend.obj (.text:macSrcMatchCheckSrcAddr)
                  0021c810    000000f4     zcl_samplelight.obj (.text:zclSampleLight_AdjustLightLevel)
                  0021c904    000000f2     ZStackLib_Coord.lib : zcl.obj (.text:zcl_SendWriteRsp)
                  0021c9f6    00000002                         : mac_backoff_timer.obj (.text:macBackoffTimerCancelTrigger)
                  0021c9f8    000000f0                         : BindingTable.obj (.text:BindUpgradeTableInNV)
                  0021cae8    000000f0                         : ccm.obj (.text:CCMAuthEncryptGetResult)
                  0021cbd8    000000ec                         : ZDProfile.obj (.text:ZDP_MgmtNwkUpdateNotify)
                  0021ccc4    000000ec     ZMain.obj (.text:main)
                  0021cdb0    000000ec     ZStackLib_Coord.lib : OSAL.obj (.text:osal_run_system)
                  0021ce9c    000000e8                         : ZDApp.obj (.text:ZDApp_LeaveReset)
                  0021cf84    000000e4                         : mac_autopend.obj (.text:MAC_SrcMatchAddEntry)
                  0021d068    000000e2                         : zcl_green_power.obj (.text:zclGp_SendGpProxyTableResponse)
                  0021d14a    000000e0                         : zcl.obj (.text:zclFindNextAttrRec)
                  0021d22a    000000dc                         : bdb.obj (.text:bdb_crcBitByBitFast)
                  0021d306    00000002     rtsv7M3_T_le_eabi.lib : mpu_init.obj (.text)
                  0021d308    000000dc     ZStackLib_Coord.lib : bdb_FindingAndBinding.obj (.text:bdb_zclFindingBindingEpType)
                  0021d3e4    000000dc                         : gp_proxyTbl.obj (.text:pt_addSinkGroup)
                  0021d4c0    000000d8                         : gp_common.obj (.text:GP_RecoveryKey)
                  0021d598    000000d8                         : ZDSecMgr.obj (.text:ZDSecMgrReadKeyFromNv)
                  0021d670    000000d8                         : io_pin_int.obj (.text:ioPortAIsr)
                  0021d748    000000d8                         : io_pin_int.obj (.text:ioPortBIsr)
                  0021d820    000000d8                         : io_pin_int.obj (.text:ioPortCIsr)
                  0021d8f8    000000d8                         : io_pin_int.obj (.text:ioPortDIsr)
                  0021d9d0    000000d4                         : BindingTable.obj (.text:bindRemoveDev)
                  0021daa4    000000d4                         : mac_autopend.obj (.text:macSrcMatchSetEnableBit)
                  0021db78    000000d4                         : zcl_general.obj (.text:zclGeneral_ProcessInIdentity)
                  0021dc4c    000000d0                         : hal_led.obj (.text:HalLedOnOff)
                  0021dd1c    000000d0                         : hal_led.obj (.text:HalLedSet)
                  0021ddec    000000d0                         : ZDSecMgr.obj (.text:ZDSecMgrDeviceJoinDirect)
                  0021debc    000000cc                         : ZDApp.obj (.text:ZDO_LeaveInd)
                  0021df88    000000cc     zcl_sampleapps_ui.obj (.text:uiArrayToString)
                  0021e054    000000c8     ZStackLib_Coord.lib : ZDApp.obj (.text:ZDApp_ProcessSecMsg)
                  0021e11c    000000c8                         : ZDApp.obj (.text:ZDO_JoinIndicationCB)
                  0021e1e4    000000c8                         : gp_common.obj (.text:gp_getProxyTableByGpId)
                  0021e2ac    000000c4                         : ZDApp.obj (.text:ZDApp_ProcessMsgCBs)
                  0021e370    000000c4                         : ZDConfig.obj (.text:ZDConfig_UpdateNodeDescriptor)
                  0021e434    000000c4                         : ZDProfile.obj (.text:ZDP_IncomingData)
                  0021e4f8    000000c4     OSAL_SampleLight.obj (.text:osalInitTasks)
                  0021e5bc    000000c0     ZStackLib_Coord.lib : ZDApp.obj (.text:ZDApp_SaveNwkKey)
                  0021e67c    000000c0                         : ZDProfile.obj (.text:ZDP_EPRsp)
                  0021e73c    000000be                         : ZDSecMgr.obj (.text:ZDSecMgrUpdateDeviceInd)
                  0021e7fa    000000be                         : zcl.obj (.text:zclParseInDiscAttrsExtRspCmd)
                  0021e8b8    000000bc     zcl_sampleapps_ui.obj (.text:UI_UpdateComissioningStatus)
                  0021e974    000000bc     ZStackLib_Coord.lib : ZDApp.obj (.text:ZDApp_RestoreNwkSecMaterial)
                  0021ea30    000000bc                         : ZDSecMgr.obj (.text:ZDSecMgrSaveTCLinkKey)
                  0021eaec    000000bc                         : mac_csp_tx.obj (.text:macCspTxGoSlotted)
                  0021eba8    000000bc                         : mac_sleep.obj (.text:macSleep)
                  0021ec64    000000b8                         : ZDObject.obj (.text:ZDO_ProcessSimpleDescReq)
                  0021ed1c    000000b8                         : ZDSecMgr.obj (.text:ZDSecMgrNewDeviceEvent)
                  0021edd4    000000b8                         : bdb_FindingAndBinding.obj (.text:bdb_ProcessIEEEAddrRsp)
                  0021ee8c    000000b8     zcl_samplelight.obj (.text:zclSampleLight_event_loop)
                  0021ef44    000000b6     ZStackLib_Coord.lib : zcl.obj (.text:zclParseHdr)
                  0021effa    00000002     rtsv7M3_T_le_eabi.lib : startup.obj (.text)
                  0021effc    000000b4     ZStackLib_Coord.lib : ioc.obj (.text:IOCPadConfigSet)
                  0021f0b0    000000b4                         : ZDSecMgr.obj (.text:ZDSecMgrSetDefaultNV)
                  0021f164    000000b4                         : gp_common.obj (.text:gp_ZclProxyTableReqParse)
                  0021f218    000000b4                         : mac_backoff_timer.obj (.text:macBackoffTimerRealign)
                  0021f2cc    000000b4     zcl_samplelight.obj (.text:zclSampleLight_DefaultMove)
                  0021f380    000000b2     ZStackLib_Coord.lib : ZDObject.obj (.text:ZDO_CopyMatchInfo)
                  0021f432    00000002     --HOLE-- [fill = 0]
                  0021f434    000000b0                         : ioc.obj (.text:IOCPinConfigPeriphOutput)
                  0021f4e4    000000b0                         : ZDObject.obj (.text:ZDO_StartDevice)
                  0021f594    000000b0                         : bsp_key.obj (.text:bspKeyDirPushedISR)
                  0021f644    000000b0                         : mac_autopend.obj (.text:macSrcMatchFindEmptyEntry)
                  0021f6f4    000000ae                         : ZDObject.obj (.text:ZDO_ProcessParentAnnceRsp)
                  0021f7a2    00000002     --HOLE-- [fill = 0]
                  0021f7a4    000000ac                         : sys_ctrl.obj (.text:SysCtrlClockSet)
                  0021f850    000000ac                         : ZDProfile.obj (.text:ZDO_SendMsgCBs)
                  0021f8fc    000000ac                         : ZDSecMgr.obj (.text:ZDSecMgrSendNwkKey)
                  0021f9a8    000000ac                         : zcl.obj (.text:zcl_addExternalFoundationHandler)
                  0021fa54    000000a8                         : BindingTable.obj (.text:BindRestoreFromNV)
                  0021fafc    000000a8                         : bdb_FindingAndBinding.obj (.text:bdb_ProcessSimpleDesc)
                  0021fba4    000000a8                         : zcl.obj (.text:zclParseInDiscAttrsRspCmd)
                  0021fc4c    000000a8     zcl_samplelight.obj (.text:zclSampleLight_OnOffCB)
                  0021fcf4    000000a8     ZMain.obj (.text:zmain_dev_info)
                  0021fd9c    000000a6     ZStackLib_Coord.lib : bdb.obj (.text:bdb_AddRespondentNode)
                  0021fe42    00000002     --HOLE-- [fill = 0]
                  0021fe44    000000a4                         : sys_ctrl.obj (.text:SysCtrlClockGet)
                  0021fee8    000000a4                         : sys_ctrl.obj (.text:SysCtrlIOClockGet)
                  0021ff8c    000000a4                         : ZDApp.obj (.text:ZDApp_LeaveUpdate)
                  00220030    000000a4                         : mac_mcu.obj (.text:macMcuOverflowSetPeriod)
                  002200d4    000000a4                         : mac_mcu.obj (.text:macMcuRfIsr)
                  00220178    000000a4                         : OSAL.obj (.text:osal_msg_receive)
                  0022021c    000000a4                         : osal_nv.obj (.text:osal_nv_read)
                  002202c0    000000a4                         : mac_rx.obj (.text:rxHaltCleanupFinalStep)
                  00220364    000000a4     zcl_sampleapps_ui.obj (.text:uiActionMenuJump)
                  00220408    000000a4     zcl_samplelight_data.obj (.text:zclSampleLight_ResetAttributesToDefaultValues)
                  002204ac    000000a2     ZStackLib_Coord.lib : ZDSecMgr.obj (.text:ZDSecMgrGenerateKeyFromSeed)
                  0022054e    000000a2                         : zcl.obj (.text:zclParseInWriteRspCmd)
                  002205f0    000000a0                         : ZDSecMgr.obj (.text:ZDSecMgrDeviceJoin)
                  00220690    000000a0                         : ZDSecMgr.obj (.text:ZDSecMgrDeviceRemove)
                  00220730    000000a0                         : mac_csp_tx.obj (.text:cspPrepForTxProgram)
                  002207d0    000000a0                         : mac_mcu.obj (.text:macMcuOverflowSetCompare)
                  00220870    000000a0                         : osal_nv.obj (.text:setItem)
                  00220910    0000009c                         : ZDApp.obj (.text:ZDApp_NetworkStartEvt)
                  002209ac    0000009c                         : ZDObject.obj (.text:ZDO_ParseParentAnnce)
                  00220a48    0000009c                         : BindingTable.obj (.text:bindAddressClear)
                  00220ae4    0000009c                         : OSAL.obj (.text:osal_msg_enqueue_max)
                  00220b80    0000009c     rtsv7M3_T_le_eabi.lib : memcpy_t2.obj (.text)
                  00220c1c    0000009c     zcl_samplelight.obj (.text:zclSampleLight_ProcessIncomingMsg)
                  00220cb8    00000098     ZStackLib_Coord.lib : ZDApp.obj (.text:ZDApp_StoreNwkSecMaterial)
                  00220d50    00000098                         : ZDProfile.obj (.text:ZDP_PowerDescMsg)
                  00220de8    00000098                         : bsp_key.obj (.text:bspKeyInit)
                  00220e80    00000098                         : hal_key.obj (.text:bspKeyPushedEx)
                  00220f18    00000098                         : zcl.obj (.text:zclBuildHdr)
                  00220fb0    00000098                         : gp_common.obj (.text:zclGp_GpProxyCommissioningModeCB)
                  00221048    00000096                         : ZDObject.obj (.text:ZDO_ProcessMgmtLeaveReq)
                  002210de    00000096                         : zcl.obj (.text:zclFindAttrRec)
                  00221174    00000096                         : zcl.obj (.text:zclProcessInDiscAttrs)
                  0022120a    00000002     --HOLE-- [fill = 0]
                  0022120c    00000094                         : BindingTable.obj (.text:BindWriteNV)
                  002212a0    00000094                         : ZDProfile.obj (.text:ZDP_MgmtPermitJoinReq)
                  00221334    00000094                         : mac_csp_tx.obj (.text:cspWeventSetTriggerSymbols)
                  002213c8    00000094                         : OSAL_Timers.obj (.text:osalAddTimer)
                  0022145c    00000092                         : BindingTable.obj (.text:bindRemoveClusterIdFromList)
                  002214ee    00000002     --HOLE-- [fill = 0]
                  002214f0    00000090                         : hal_drivers.obj (.text:Hal_ProcessEvent)
                  00221580    00000090                         : BindingTable.obj (.text:InitBindingTable)
                  00221610    00000090                         : bdb.obj (.text:bdb_TCjoiningDeviceComplete)
                  002216a0    00000090                         : mac_csp_tx.obj (.text:cspWeventSetTriggerNow)
                  00221730    00000090                         : OSAL.obj (.text:osal_build_uint32)
                  002217c0    00000090     zcl_sampleapps_ui.obj (.text:uiUintToString)
                  00221850    00000090     ZStackLib_Coord.lib : gp_proxyTbl.obj (.text:zclGpp_ReadWriteAttrCB)
                  002218e0    0000008e                         : ZDObject.obj (.text:ZDO_CompareClusterLists)
                  0022196e    0000008e                         : nwk_globals.obj (.text:nwk_adjustDelay)
                  002219fc    0000008e                         : zcl.obj (.text:zclRevertWriteUndividedCmd)
                  00221a8a    0000008c                         : ssi.obj (.text:SSIConfigSetExpClk)
                  00221b16    0000008c                         : ZDObject.obj (.text:ZDO_ParseBindUnbindReq)
                  00221ba2    00000002     --HOLE-- [fill = 0]
                  00221ba4    0000008c                         : ZDProfile.obj (.text:ZDO_RegisterForZDOMsg)
                  00221c30    0000008c                         : ZDObject.obj (.text:ZDO_RemoveMatchMemory)
                  00221cbc    0000008c                         : ZDProfile.obj (.text:ZDP_NwkAddrReq)
                  00221d48    0000008c                         : zmac.obj (.text:ZMacScanReq)
                  00221dd4    0000008c                         : bdb_FindingAndBinding.obj (.text:bdb_FindIfAppCluster)
                  00221e60    0000008c                         : bdb.obj (.text:bdb_nwkJoiningFormation)
                  00221eec    0000008c                         : bdb_FindingAndBinding.obj (.text:bdb_setEpDescListToActiveEndpoint)
                  00221f78    0000008c                         : mac_radio.obj (.text:macRadioSetTxPower)
                  00222004    00000088                         : ZDObject.obj (.text:ZDO_ProcessActiveEPReq)
                  0022208c    00000088                         : zcl_green_power.obj (.text:gp_AddCmdPayloadMsgNode)
                  00222114    00000088                         : bdb.obj (.text:gp_CBInit)
                  0022219c    00000088                         : gp_common.obj (.text:gp_ProxyTblInit)
                  00222224    00000088                         : mac_radio_defs.obj (.text:macRadioTurnOnPower)
                  002222ac    00000086                         : hal_key.obj (.text:hal_key_int_keys)
                  00222332    00000002     --HOLE-- [fill = 0]
                  00222334    00000084                         : gpio.obj (.text:GPIOPowIntTypeSet)
                  002223b8    00000084                         : ZDApp.obj (.text:ZDApp_SecInit)
                  0022243c    00000084                         : ZDProfile.obj (.text:ZDP_IEEEAddrReq)
                  002224c0    00000084                         : bdb.obj (.text:bdb_TCJoiningDeviceFree)
                  00222544    00000084                         : bdb.obj (.text:bdb_ZclIdentifyCmdInd)
                  002225c8    00000084                         : BindingTable.obj (.text:bindFind)
                  0022264c    00000084                         : gp_common.obj (.text:gp_DataIndFindDuplicate)
                  002226d0    00000084                         : mac_rx_onoff.obj (.text:macRxOff)
                  00222754    00000084                         : OSAL.obj (.text:osal_msg_enqueue_push)
                  002227d8    00000084                         : zcl_general.obj (.text:zclGeneral_RegisterCmdCallbacks)
                  0022285c    00000084                         : zcl_green_power.obj (.text:zclGp_RegisterCmdCallbacks)
                  002228e0    00000084                         : zcl.obj (.text:zclWriteAttrData)
                  00222964    00000084                         : ZGlobals.obj (.text:zgPreconfigKeyInit)
                  002229e8    00000082                         : gpio.obj (.text:GPIOIntTypeSet)
                  00222a6a    00000082                         : BindingTable.obj (.text:bindAddrIndexGet)
                  00222aec    00000080                         : aes.obj (.text:AESECBGetResult)
                  00222b6c    00000080                         : interrupt.obj (.text:IntDisable)
                  00222bec    00000080                         : interrupt.obj (.text:IntEnable)
                  00222c6c    00000080                         : ZDApp.obj (.text:ZDAppDetermineDeviceType)
                  00222cec    00000080                         : ZDApp.obj (.text:ZDO_JoinConfirmCB)
                  00222d6c    00000080                         : ZDProfile.obj (.text:ZDP_DeviceAnnce)
                  00222dec    00000080                         : AF.obj (.text:afRegisterExtended)
                  00222e6c    00000080                         : ZDProfile.obj (.text:fillAndSend)
                  00222eec    00000080                         : mac_radio.obj (.text:macRadioUpdateChannel)
                  00222f6c    00000080                         : mac_autopend.obj (.text:macSrcMatchSetPendEnBit)
                  00222fec    00000080                         : mac_tx.obj (.text:macTxAckReceivedCallback)
                  0022306c    00000080                         : mac_tx.obj (.text:macTxChannelBusyCallback)
                  002230ec    00000080                         : gp_proxyTbl.obj (.text:pt_lookForGpd)
                  0022316c    00000080     zcl_ha.obj (.text:zclHA_uint8toa)
                  002231ec    00000080     zcl_samplelight.obj (.text:zclSampleLight_GetTime)
                  0022326c    0000007e     ZStackLib_Coord.lib : zmac.obj (.text:ZMacDataReqSec)
                  002232ea    00000002     --HOLE-- [fill = 0]
                  002232ec    0000007c                         : hal_key.obj (.text:HalKeyConfig)
                  00223368    0000007c                         : ZDProfile.obj (.text:ZDP_SendData)
                  002233e4    0000007c                         : bdb.obj (.text:bdb_crcInit)
                  00223460    0000007c                         : bsp_key.obj (.text:bspKeySelPushedISR)
                  002234dc    0000007c                         : osal_nv.obj (.text:calcChkB)
                  00223558    0000007c                         : hal_key.obj (.text:hal_key_keys)
                  002235d4    0000007c                         : mac_mcu.obj (.text:macMcuOverflowSetCount)
                  00223650    0000007c     zcl_samplelight.obj (.text:zclSampleLight_LevelControlStepCB)
                  002236cc    0000007c     ZStackLib_Coord.lib : zcl.obj (.text:zcl_HandleExternal)
                  00223748    0000007a                         : ZDObject.obj (.text:ZDO_ParseMgmtNwkUpdateReq)
                  002237c2    0000007a     rtsv7M3_T_le_eabi.lib : memset_t2.obj (.text)
                  0022383c    00000078     zcl_sampleapps_ui.obj (.text:UI_Init)
                  002238b4    00000078     ZStackLib_Coord.lib : ZDObject.obj (.text:ZDO_ProcessMgmtPermitJoinReq)
                  0022392c    00000078                         : BindingTable.obj (.text:bindNumReflections)
                  002239a4    00000078                         : OSAL_Memory.obj (.text:osal_mem_free)
                  00223a1c    00000078                         : zcl.obj (.text:zclFindClusterOption)
                  00223a94    00000078                         : zcl.obj (.text:zclParseInReadCmd)
                  00223b0c    00000078                         : zcl.obj (.text:zcl_registerAttrList)
                  00223b84    00000078                         : ZGlobals.obj (.text:zgInitItems)
                  00223bfc    00000076                         : hal_ccm.obj (.text:SSP_CCM_InvAuth_Decrypt)
                  00223c72    00000002     --HOLE-- [fill = 0]
                  00223c74    00000074                         : BindingTable.obj (.text:GetBindingTableEntry)
                  00223ce8    00000074                         : hal_ccm.obj (.text:SSP_CCM_Auth_Encrypt)
                  00223d5c    00000074                         : ZDApp.obj (.text:ZDApp_DeviceAuthEvt)
                  00223dd0    00000074                         : ZDApp.obj (.text:ZDApp_ProcessOSALMsg)
                  00223e44    00000074                         : ZDObject.obj (.text:ZDO_ProcessNodeDescReq)
                  00223eb8    00000074                         : ZDObject.obj (.text:ZDO_ProcessPowerDescReq)
                  00223f2c    00000074                         : zmac_cb.obj (.text:ZMacLqiAdjust)
                  00223fa0    00000074                         : BindingTable.obj (.text:bindAddrMgrLocalLoad)
                  00224014    00000074                         : bsp_key.obj (.text:bspKeyIntRegister)
                  00224088    00000074                         : mac_backoff_timer.obj (.text:macBackoffTimerSetTrigger)
                  002240fc    00000074                         : OSAL_Clock.obj (.text:osalClockUpdate)
                  00224170    00000074                         : zcl.obj (.text:zclParseInDiscCmdsRspCmd)
                  002241e4    00000072                         : gp_common.obj (.text:gp_PopulateField)
                  00224256    00000002     --HOLE-- [fill = 0]
                  00224258    00000070                         : mac_pib.obj (.text:MAC_MlmeGetReq)
                  002242c8    00000070                         : ZDNwkMgr.obj (.text:ZDNwkMgr_ProcessEDScanConfirm)
                  00224338    00000070                         : ZDSecMgr.obj (.text:ZDSecMgrEntryLookupAMI)
                  002243a8    00000070                         : bdb_FindingAndBinding.obj (.text:bdb_SendIdentifyQuery)
                  00224418    00000070                         : bdb_FindingAndBinding.obj (.text:bdb_zclFindingBindingAddBindEntry)
                  00224488    00000070                         : mac_radio.obj (.text:macRadioStartScan)
                  002244f8    00000070     rtsv7M3_T_le_eabi.lib : autoinit.obj (.text)
                  00224568    00000070     zcl_sampleapps_ui.obj (.text:uiActionStartComissioning)
                  002245d8    00000070     zcl_samplelight.obj (.text:zclSampleLight_TimeRateHelper)
                  00224648    00000070     ZStackLib_Coord.lib : zcl.obj (.text:zcl_registerCmdList)
                  002246b8    00000070                         : zcl.obj (.text:zcl_registerPlugin)
                  00224728    0000006e                         : ZDObject.obj (.text:ZDO_AnyClusterMatches)
                  00224796    0000006e                         : osal_nv.obj (.text:findItem)
                  00224804    0000006c                         : gpio.obj (.text:GPIOPowIntClear)
                  00224870    0000006c                         : hal_sys_ctrl.obj (.text:SysCtrlRunSetting)
                  002248dc    0000006c                         : ZDNwkMgr.obj (.text:ZDNwkMgr_Init)
                  00224948    0000006c                         : bdb.obj (.text:bdb_SendMsg)
                  002249b4    0000006c                         : osal_nv.obj (.text:calcChkF)
                  00224a20    0000006c                         : mac_csp_tx.obj (.text:macCspTxPrepCsmaUnslotted)
                  00224a8c    0000006c                         : mac_mcu.obj (.text:macMcuRfErrIsr)
                  00224af8    0000006c                         : mac_mcu.obj (.text:macMcuTimer2Isr)
                  00224b64    0000006c                         : mac_tx.obj (.text:macTxDoneCallback)
                  00224bd0    0000006c                         : osal_nv.obj (.text:osal_nv_item_len)
                  00224c3c    0000006c                         : zcl.obj (.text:zclWriteAttrDataUsingCB)
                  00224ca8    0000006c                         : ZGlobals.obj (.text:zgInit)
                  00224d14    0000006a                         : bdb.obj (.text:bdb_crcReflect)
                  00224d7e    0000006a                         : OSAL.obj (.text:osal_msg_enqueue)
                  00224de8    0000006a                         : zcl.obj (.text:zclGetAttrDataLength)
                  00224e52    0000006a                         : ZGlobals.obj (.text:zgWriteStartupOptions)
                  00224ebc    00000068                         : ZDApp.obj (.text:ZDO_AddrChangeIndicationCB)
                  00224f24    00000068                         : ZDObject.obj (.text:ZDO_UpdateNwkStatus)
                  00224f8c    00000068                         : ZDSecMgr.obj (.text:ZDSecMgrApsLinkKeyInit)
                  00224ff4    00000068                         : AF.obj (.text:afReflectError)
                  0022505c    00000068                         : bdb_FindingAndBinding.obj (.text:bdb_ZclIdentifyQueryCmdInd)
                  002250c4    00000068                         : BindingTable.obj (.text:bindNumOfEntries)
                  0022512c    00000068                         : bsp.obj (.text:bspSpiInit)
                  00225194    00000068                         : mac_csp_tx.obj (.text:cspReadCountSymbols)
                  002251fc    00000068     rtsv7M3_T_le_eabi.lib : copy_decompress_lzss.obj (.text:decompress:lzss)
                  00225264    00000068     ZStackLib_Coord.lib : mac_csp_tx.obj (.text:macCspTxPrepCsmaSlotted)
                  002252cc    00000068                         : mac_mcu.obj (.text:macMcuOverflowCount)
                  00225334    00000068                         : mac_radio.obj (.text:macRadioUpdateTxPower)
                  0022539c    00000068                         : OSAL.obj (.text:osal_msg_find)
                  00225404    00000068                         : osal_nv.obj (.text:osal_nv_delete)
                  0022546c    00000068                         : mac_rx.obj (.text:rxDiscardIsr)
                  002254d4    00000068                         : zcl.obj (.text:zcl_DeviceOperational)
                  0022553c    00000066                         : zcl_green_power.obj (.text:gp_AddNotificationMsgNode)
                  002255a2    00000066                         : OSAL.obj (.text:osal_msg_extract)
                  00225608    00000064     cx2538_startup_ccs.obj (.text:ResetISR)
                  0022566c    00000064     ZStackLib_Coord.lib : bdb.obj (.text:bdb_addInstallCode)
                  002256d0    00000064                         : mac_low_level.obj (.text:macLowLevelYield)
                  00225734    00000064                         : mac_sleep.obj (.text:macSleepWakeUp)
                  00225798    00000064                         : mac_tx.obj (.text:macTxStartQueuedFrame)
                  002257fc    00000062                         : gp_common.obj (.text:gp_u32CastPointer)
                  0022585e    00000002     --HOLE-- [fill = 0]
                  00225860    00000060                         : ZDProfile.obj (.text:ZDP_GenericRsp)
                  002258c0    00000060                         : gp_common.obj (.text:gp_getProxyTableByIndex)
                  00225920    00000060                         : lcd_srf06eb.obj (.text:lcdInit)
                  00225980    00000060                         : mac_mcu.obj (.text:macMcuOverflowCapture)
                  002259e0    00000060                         : mac_rx.obj (.text:macRxInit)
                  00225a40    00000060                         : OSAL.obj (.text:osal_clear_event)
                  00225aa0    00000060                         : OSAL.obj (.text:osal_set_event)
                  00225b00    00000060                         : zcl_general.obj (.text:zclGeneral_SendIdentifyQueryResponse)
                  00225b60    0000005e                         : ZGlobals.obj (.text:zgItemInit)
                  00225bbe    0000005c                         : gpio.obj (.text:GPIODirModeSet)
                  00225c1a    00000002     --HOLE-- [fill = 0]
                  00225c1c    0000005c                         : interrupt.obj (.text:IntRegister)
                  00225c78    0000005c                         : hal_sys_ctrl.obj (.text:SysCtrlDeepSleepSetting)
                  00225cd4    0000005c                         : sys_ctrl.obj (.text:SysCtrlPeripheralReset)
                  00225d30    0000005c                         : hal_sys_ctrl.obj (.text:SysCtrlSleepSetting)
                  00225d8c    0000005c     zcl_sampleapps_ui.obj (.text:UI_DeviceStateUpdated)
                  00225de8    0000005c     ZStackLib_Coord.lib : bdb.obj (.text:bdb_Init)
                  00225e44    0000005c                         : osal_nv.obj (.text:erasePage)
                  00225ea0    0000005c                         : mac_radio.obj (.text:macRadioSetChannel)
                  00225efc    0000005c                         : mac_rx.obj (.text:rxDiscardFrame)
                  00225f58    0000005c     zcl_samplelight.obj (.text:zclSampleLight_UiUpdateLcd)
                  00225fb4    0000005a     ZStackLib_Coord.lib : osal_nv.obj (.text:osal_nv_item_init)
                  0022600e    00000002     --HOLE-- [fill = 0]
                  00226010    00000058                         : interrupt.obj (.text:IntPendClear)
                  00226068    00000058                         : ZDApp.obj (.text:ZDApp_RegisterCBs)
                  002260c0    00000058                         : zmac.obj (.text:ZMacSendNoData)
                  00226118    00000058                         : bdb_FindingAndBinding.obj (.text:bdb_GetFBInitiatorStatus)
                  00226170    00000058                         : mac_mcu.obj (.text:macMcuTimerCapture)
                  002261c8    00000058                         : mac_rx_onoff.obj (.text:macRxHardDisable)
                  00226220    00000058                         : mac_rx_onoff.obj (.text:macRxOffRequest)
                  00226278    00000058                         : ZDObject.obj (.text:zdoSendStateChangeMsg)
                  002262d0    00000056                         : ZDSecMgr.obj (.text:ZDSecMgrGenerateRndKey)
                  00226326    00000056                         : OSAL.obj (.text:osal_msg_dequeue)
                  0022637c    00000056                         : OSAL_Timers.obj (.text:osal_start_reload_timer)
                  002263d2    00000056                         : saddr.obj (.text:sAddrCmp)
                  00226428    00000056                         : zcl.obj (.text:zcl_ReadAttrData)
                  0022647e    00000056                         : zcl.obj (.text:zcl_SendDefaultRspCmd)
                  002264d4    00000054                         : hal_lcd.obj (.text:HalLcd_HW_WriteLine)
                  00226528    00000054                         : interrupt.obj (.text:IntPrioritySet)
                  0022657c    00000054                         : ZDObject.obj (.text:ZDO_ConvertOTAClusters)
                  002265d0    00000054                         : ZDSecMgr.obj (.text:ZDSecMgrAddrStore)
                  00226624    00000054                         : zmac.obj (.text:ZMacReset)
                  00226678    00000054                         : AF.obj (.text:afDataConfirm)
                  002266cc    00000054                         : AF.obj (.text:afFindSimpleDesc)
                  00226720    00000054                         : BindingTable.obj (.text:bindFindEmpty)
                  00226774    00000054                         : bsp_key.obj (.text:bspKeyTimerISR)
                  002267c8    00000054                         : lcd_dogm128_6.obj (.text:lcdGotoXY)
                  0022681c    00000054                         : mac_mcu.obj (.text:macMcuTimerForceDelay)
                  00226870    00000054                         : mac_rx.obj (.text:macRxRadioPowerUpInit)
                  002268c4    00000054                         : OSAL_Memory.obj (.text:osal_mem_kick)
                  00226918    00000054     rtsv7M3_T_le_eabi.lib : exit.obj (.text)
                  0022696c    00000054     ZStackLib_Coord.lib : ZGlobals.obj (.text:zgUpgradeNVItems)
                  002269c0    00000052                         : OSAL_Timers.obj (.text:osal_stop_timerEx)
                  00226a12    00000002     --HOLE-- [fill = 0]
                  00226a14    00000050                         : mac_autopend.obj (.text:MAC_SrcMatchEnable)
                  00226a64    00000050                         : ZDSecMgr.obj (.text:ZDSecMgrAPSRemove)
                  00226ab4    00000050                         : zcl_green_power.obj (.text:gp_NotificationMsgClean)
                  00226b04    00000050                         : gp_common.obj (.text:gp_expireDuplicateFiltering)
                  00226b54    00000050                         : lcd_dogm128_6.obj (.text:lcdSendBuffer)
                  00226ba4    00000050                         : mac_rx_onoff.obj (.text:macRxDisable)
                  00226bf4    00000050                         : mac_rx.obj (.text:macRxPromiscuousMode)
                  00226c44    00000050                         : mac_tx.obj (.text:macTxAckNotReceivedCallback)
                  00226c94    00000050                         : osal_nv.obj (.text:readHdr)
                  00226ce4    00000050                         : osal_nv.obj (.text:readPgHdr)
                  00226d34    00000050                         : zcl_general.obj (.text:zclGeneral_HdlInSpecificCommands)
                  00226d84    00000050     zcl_samplelight.obj (.text:zclSampleLight_MoveBasedOnTime)
                  00226dd4    0000004e     ZStackLib_Coord.lib : OSAL_Timers.obj (.text:osal_get_timeoutEx)
                  00226e22    0000004e                         : OSAL.obj (.text:osal_isbufset)
                  00226e70    0000004c                         : gpio.obj (.text:GPIOGetIntNumber)
                  00226ebc    0000004c                         : hal_key.obj (.text:HalKeyPoll)
                  00226f08    0000004c                         : hal_lcd.obj (.text:HalLcd_HW_Clear)
                  00226f54    0000004c                         : mac_autopend.obj (.text:MAC_SrcMatchDeleteEntry)
                  00226fa0    0000004c     OnBoard.obj (.text:OnBoard_SendKeys)
                  00226fec    0000004c     ZStackLib_Coord.lib : ZDApp.obj (.text:ZDApp_SendParentAnnce)
                  00227038    0000004c                         : ZDApp.obj (.text:ZDO_LeaveCnf)
                  00227084    0000004c                         : ZDProfile.obj (.text:ZDP_SimpleDescReq)
                  002270d0    0000004c                         : AF.obj (.text:afEndPoints)
                  0022711c    0000004c                         : gp_common.obj (.text:gp_stopCommissioningMode)
                  00227168    0000004c                         : mac_backoff_timer.obj (.text:macBackoffTimerSetCount)
                  002271b4    0000004c                         : mac_mcu.obj (.text:macMcuAccumulatedOverFlow)
                  00227200    0000004c                         : mac_rx_onoff.obj (.text:macRxEnable)
                  0022724c    0000004c                         : OSAL_Timers.obj (.text:osal_start_timerEx)
                  00227298    0000004c     rtsv7M3_T_le_eabi.lib : cpy_tbl.obj (.text)
                  002272e4    0000004c     ZStackLib_Coord.lib : mac_tx.obj (.text:txAckIsrTimeout)
                  00227330    0000004c     zcl_sampleapps_ui.obj (.text:uiActionConfigureEnables)
                  0022737c    0000004c     zcl_sampleapps_ui.obj (.text:uiActionSetInstallCode)
                  002273c8    0000004c     zcl_samplelight.obj (.text:zclSampleLight_MoveBasedOnRate)
                  00227414    0000004a     ZStackLib_Coord.lib : ZDApp.obj (.text:ZDApp_SendMsg)
                  0022745e    0000004a                         : BindingTable.obj (.text:bindIsClusterIDinList)
                  002274a8    0000004a                         : mac_radio.obj (.text:radioComputeED)
                  002274f2    00000002     --HOLE-- [fill = 0]
                  002274f4    00000048                         : ZDConfig.obj (.text:ZDConfig_UpdatePowerDescriptor)
                  0022753c    00000048                         : ZDNwkMgr.obj (.text:ZDNwkMgr_ProcessChannelInterference)
                  00227584    00000048                         : ZDSecMgr.obj (.text:ZDSecMgrEntryFree)
                  002275cc    00000048                         : ZDSecMgr.obj (.text:ZDSecMgrExtAddrLookup)
                  00227614    00000048                         : ZDSecMgr.obj (.text:ZDSecMgrInitNV)
                  0022765c    00000048                         : bdb_FindingAndBinding.obj (.text:bdb_findRespondentNode)
                  002276a4    00000048                         : bdb.obj (.text:bdb_setNodeIsOnANetwork)
                  002276ec    00000048                         : gp_common.obj (.text:gp_returnOperationalChannel)
                  00227734    00000048                         : osal_nv.obj (.text:hotItem)
                  0022777c    00000048                         : osal_nv.obj (.text:hotItemUpdate)
                  002277c4    00000048                         : mac_backoff_timer.obj (.text:macBackoffTimerSetRollover)
                  0022780c    00000048                         : mac_rx_onoff.obj (.text:macRxSoftEnable)
                  00227854    00000048                         : mac_rx.obj (.text:rxPrepPayload)
                  0022789c    00000048                         : mac_tx.obj (.text:txComplete)
                  002278e4    00000048     zcl_sampleapps_ui.obj (.text:uiCreateChannelMaskString)
                  0022792c    00000048     zcl_sampleapps_ui.obj (.text:uiProcessPermitJoin)
                  00227974    00000048     ZStackLib_Coord.lib : zcl.obj (.text:zclFindPlugin)
                  002279bc    00000048                         : zcl.obj (.text:zclReadAttrDataUsingCB)
                  00227a04    00000048                         : zcl.obj (.text:zcl_getExternalFoundationHandler)
                  00227a4c    00000046                         : zcl_green_power.obj (.text:gp_CmdPayloadMsgClean)
                  00227a92    00000046                         : OSAL.obj (.text:osal_buffer_uint32)
                  00227ad8    00000046                         : OSAL.obj (.text:osal_revmemcpy)
                  00227b1e    00000046                         : zcl.obj (.text:zclReadAttrData)
                  00227b64    00000044                         : hal_sys_ctrl.obj (.text:SysCtrlWakeupSetting)
                  00227ba8    00000044                         : ZDApp.obj (.text:ZDApp_Init)
                  00227bec    00000044                         : ZDNwkMgr.obj (.text:ZDNwkMgr_EDScanConfirmCB)
                  00227c30    00000044                         : ZDObject.obj (.text:ZDO_ParseDeviceAnnce)
                  00227c74    00000044                         : bdb.obj (.text:bdb_nwkFormationAttempt)
                  00227cb8    00000044                         : gp_common.obj (.text:gp_endpointInit)
                  00227cfc    00000044                         : lcd_srf06eb.obj (.text:lcdSendArray)
                  00227d40    00000044                         : lcd_srf06eb.obj (.text:lcdSendCommand)
                  00227d84    00000044                         : lcd_srf06eb.obj (.text:lcdSendData)
                  00227dc8    00000044                         : mac_backoff_timer.obj (.text:macBackoffTimerCapture)
                  00227e0c    00000044                         : mac_backoff_timer.obj (.text:macBackoffTimerCount)
                  00227e50    00000044                         : mac_rx_onoff.obj (.text:macRxOn)
                  00227e94    00000044                         : OSAL_Timers.obj (.text:osalFindTimer)
                  00227ed8    00000044                         : saddr.obj (.text:sAddrExtCmp)
                  00227f1c    00000044     zcl_samplelight.obj (.text:zclSampleLight_LevelControlMoveCB)
                  00227f60    00000044     zcl_samplelight.obj (.text:zclSampleLight_ProcessCommissioningStatus)
                  00227fa4    00000042     ZStackLib_Coord.lib : gp_common.obj (.text:GP_ProccessCommissioningNotification)
                  00227fe6    00000042                         : mac_pib.obj (.text:macPibIndex)
                  00228028    00000042                         : OSAL.obj (.text:osal_memcmp)
                  0022806a    00000002     --HOLE-- [fill = 0]
                  0022806c    00000040                         : mac_autopend.obj (.text:MAC_SrcMatchAckAllPending)
                  002280ac    00000040                         : ZDSecMgr.obj (.text:ZDSecMgrAddrClear)
                  002280ec    00000040                         : ZDSecMgr.obj (.text:ZDSecMgrGenerateSeed)
                  0022812c    00000040                         : ZDSecMgr.obj (.text:ZDSecMgrPermitJoining)
                  0022816c    00000040                         : BindingTable.obj (.text:bindAddClusterIdToList)
                  002281ac    00000040                         : BindingTable.obj (.text:bindingAddrMgsHelperConvert)
                  002281ec    00000040                         : mac_backoff_timer.obj (.text:macBackoffTimerInit)
                  0022822c    00000040                         : mac_csp_tx.obj (.text:macCspTxGoCsma)
                  0022826c    00000040                         : mac_csp_tx.obj (.text:macCspTxStopIsr)
                  002282ac    00000040                         : mac_mcu.obj (.text:macMcuRandomWord)
                  002282ec    00000040                         : mac_mem.obj (.text:macMemReadRam)
                  0022832c    00000040                         : OSAL_Memory.obj (.text:osal_mem_init)
                  0022836c    00000040                         : OSAL.obj (.text:osal_msg_allocate)
                  002283ac    00000040     rtsv7M3_T_le_eabi.lib : boot.obj (.text)
                  002283ec    00000040     ZStackLib_Coord.lib : mac_rx.obj (.text:rxDone)
                  0022842c    00000040                         : zcl_general.obj (.text:zclGeneral_HdlIncoming)
                  0022846c    00000040                         : zcl_green_power.obj (.text:zclGp_HdlInSpecificCommands)
                  002284ac    00000040                         : zcl_green_power.obj (.text:zclGp_HdlIncoming)
                  002284ec    00000040                         : zcl.obj (.text:zclParseInDiscAttrsCmd)
                  0022852c    0000003e                         : ZDApp.obj (.text:ZDApp_InMsgCB)
                  0022856a    0000003e                         : bdb.obj (.text:bdb_zclRespondentListClean)
                  002285a8    0000003e                         : zcl.obj (.text:zclGetAttrDataLengthUsingCB)
                  002285e6    0000003e                         : zcl.obj (.text:zclSetSecurityOption)
                  00228624    0000003c                         : flash.obj (.text:FlashCacheModeSet)
                  00228660    0000003c                         : hal_adc.obj (.text:HalAdcCheckVdd)
                  0022869c    0000003c     OnBoard.obj (.text:InitBoard)
                  002286d8    0000003c     ZStackLib_Coord.lib : ZDApp.obj (.text:ZDO_ConcentratorIndicationCB)
                  00228714    0000003c                         : ZDApp.obj (.text:ZDO_NetworkDiscoveryConfirmCB)
                  00228750    0000003c                         : ZDApp.obj (.text:ZDO_SrcRtgIndCB)
                  0022878c    0000003c                         : ZDSecMgr.obj (.text:ZDSecMgrUpdateTCAddress)
                  002287c8    0000003c                         : BindingTable.obj (.text:bindingAddrMgsHelperFind)
                  00228804    0000003c                         : bsp_key.obj (.text:bspKeyTimerEnable)
                  00228840    0000003c                         : mac_csp_tx.obj (.text:macCspTxPrepSlotted)
                  0022887c    0000003c                         : mac_mem.obj (.text:macMemWriteRam)
                  002288b8    0000003c                         : OSAL.obj (.text:osal_memcpy)
                  002288f4    0000003c                         : OSAL.obj (.text:osal_msg_push)
                  00228930    0000003c                         : mac_rx.obj (.text:rxPayloadIsr)
                  0022896c    0000003c                         : zcl_general.obj (.text:zclGeneral_FindCallbacks)
                  002289a8    0000003c                         : zcl_green_power.obj (.text:zclGp_FindCallbacks)
                  002289e4    00000038                         : BindingTable.obj (.text:BindInitNV)
                  00228a1c    00000038                         : ZDApp.obj (.text:ZDApp_InitZdoCBFunc)
                  00228a54    00000038                         : ZDNwkMgr.obj (.text:ZDNwkMgr_ReportChannelInterference)
                  00228a8c    00000038                         : ZDApp.obj (.text:ZDO_StartRouterConfirmCB)
                  00228ac4    00000038                         : AF.obj (.text:afFindEndPointDescList)
                  00228afc    00000038                         : AF.obj (.text:afGetDescCB)
                  00228b34    00000038                         : AF.obj (.text:afNumEndPoints)
                  00228b6c    00000038                         : bdb.obj (.text:bdb_RegisterSimpleDescriptor)
                  00228ba4    00000038                         : bsp_key.obj (.text:bspKeyIntEnable)
                  00228bdc    00000038                         : mac_mem.obj (.text:macMemReadRxFifo)
                  00228c14    00000038                         : mac_mem.obj (.text:macMemWriteTxFifo)
                  00228c4c    00000038                         : mac_rx_onoff.obj (.text:macRxOnRequest)
                  00228c84    00000038                         : mac_rx.obj (.text:macRxThresholdIsr)
                  00228cbc    00000038                         : OSAL.obj (.text:osal_buffer_uint24)
                  00228cf4    00000038                         : zcl.obj (.text:zclFindAttrRecsList)
                  00228d2c    00000038                         : zcl.obj (.text:zclFindCmdRecsList)
                  00228d64    00000038                         : gp_common.obj (.text:zclGp_GpPairingCommandCB)
                  00228d9c    00000036                         : gp_proxyTbl.obj (.text:gp_PopulateProxyTblEntry)
                  00228dd2    00000036                         : gp_common.obj (.text:gp_u16CastPointer)
                  00228e08    00000036                         : zcl.obj (.text:zclAuthorizeRead)
                  00228e3e    00000036                         : zcl.obj (.text:zclAuthorizeWrite)
                  00228e74    00000034                         : ZDSecMgr.obj (.text:APSME_LinkKeyNVIdGet)
                  00228ea8    00000034                         : ZDNwkMgr.obj (.text:ZDNwkMgr_ProcessDataConfirm)
                  00228edc    00000034                         : armcm3flashutil.obj (.text:flashErasePage)
                  00228f10    00000034                         : hal_key.obj (.text:interrupt_keybd)
                  00228f44    00000034                         : mac_csp_tx.obj (.text:macCspForceTxDoneIfPending)
                  00228f78    00000034                         : mac_low_level.obj (.text:macLowLevelReset)
                  00228fac    00000034                         : osal_nv.obj (.text:markPage)
                  00228fe0    00000034                         : mac_mcu.obj (.text:mcuRecordMaxRssiIsr)
                  00229014    00000034                         : mac_tx.obj (.text:txCsmaPrep)
                  00229048    00000034                         : mac_tx.obj (.text:txGo)
                  0022907c    00000032                         : ZDObject.obj (.text:ZDO_ParseServerDiscRsp)
                  002290ae    00000032                         : AF.obj (.text:afAPSF_ConfigGet)
                  002290e0    00000032                         : AF.obj (.text:afDataReqMTU)
                  00229112    00000032                         : zcl.obj (.text:zclParseInDiscCmdsCmd)
                  00229144    00000032                         : zcl.obj (.text:zcl_registerReadWriteCB)
                  00229176    00000002     --HOLE-- [fill = 0]
                  00229178    00000030     cx2538_startup_ccs.obj (.text:IntDefaultHandler)
                  002291a8    00000030     ZStackLib_Coord.lib : mac_autopend.obj (.text:MAC_SrcMatchCheckResult)
                  002291d8    00000030                         : ZDApp.obj (.text:ZDApp_AnnounceNewAddress)
                  00229208    00000030                         : ZDApp.obj (.text:ZDApp_ChangeState)
                  00229238    00000030                         : ZDApp.obj (.text:ZDApp_LeaveCtrlInit)
                  00229268    00000030                         : ZDApp.obj (.text:ZDApp_LeaveCtrlSet)
                  00229298    00000030                         : ZDApp.obj (.text:ZDApp_StartJoiningCycle)
                  002292c8    00000030                         : ZDApp.obj (.text:ZDApp_StopJoiningCycle)
                  002292f8    00000030                         : ZDSecMgr.obj (.text:ZDSecMgrAppConfKeyReq)
                  00229328    00000030                         : ZDSecMgr.obj (.text:ZDSecMgrEntryLookupExt)
                  00229358    00000030                         : AF.obj (.text:afCopyAddress)
                  00229388    00000030                         : bdb.obj (.text:bdb_calculateCCITT_CRC)
                  002293b8    00000030                         : bdb_FindingAndBinding.obj (.text:bdb_getRespondentRetry)
                  002293e8    00000030                         : bsp.obj (.text:bspSpiClockSpeedSet)
                  00229418    00000030                         : mac_pib.obj (.text:macPibReset)
                  00229448    00000030                         : mac_radio.obj (.text:macRadioStopScan)
                  00229478    00000030                         : mac_tx.obj (.text:txCsmaGo)
                  002294a8    00000030     zcl_sampleapps_ui.obj (.text:uiProcessIdentifyTimeChange)
                  002294d8    00000030     ZStackLib_Coord.lib : zcl.obj (.text:zclGetClusterOption)
                  00229508    00000030     zcl_samplelight.obj (.text:zclSampleLight_ProcessInDiscAttrsExtRspCmd)
                  00229538    00000030     zcl_samplelight.obj (.text:zclSampleLight_ProcessInDiscAttrsRspCmd)
                  00229568    00000030     zcl_samplelight.obj (.text:zclSampleLight_ProcessInDiscCmdsRspCmd)
                  00229598    00000030     zcl_samplelight.obj (.text:zclSampleLight_ProcessInReadRspCmd)
                  002295c8    00000030     zcl_samplelight.obj (.text:zclSampleLight_ProcessInWriteRspCmd)
                  002295f8    0000002e     ZStackLib_Coord.lib : ZDSecMgr.obj (.text:APSME_KeyFwdToChild)
                  00229626    0000002e                         : bdb_FindingAndBinding.obj (.text:bdb_zclSimpleDescClusterListClean)
                  00229654    0000002e                         : zcl.obj (.text:zclParseInDefaultRspCmd)
                  00229682    00000002     --HOLE-- [fill = 0]
                  00229684    0000002c                         : aes.obj (.text:AESECBCheckResult)
                  002296b0    0000002c                         : ccm.obj (.text:CCMAuthEncryptCheckResult)
                  002296dc    0000002c                         : sys_ctrl.obj (.text:SysCtrlPeripheralDeepSleepDisable)
                  00229708    0000002c                         : sys_ctrl.obj (.text:SysCtrlPeripheralDisable)
                  00229734    0000002c                         : sys_ctrl.obj (.text:SysCtrlPeripheralEnable)
                  00229760    0000002c                         : sys_ctrl.obj (.text:SysCtrlPeripheralSleepDisable)
                  0022978c    0000002c                         : ZDApp.obj (.text:ZDApp_NetworkInit)
                  002297b8    0000002c                         : ZDApp.obj (.text:ZDApp_SetParentAnnceTimer)
                  002297e4    0000002c                         : ZDApp.obj (.text:ZDO_RegisterForZdoCB)
                  00229810    0000002c                         : ZDObject.obj (.text:ZDO_UpdateAddrManager)
                  0022983c    0000002c                         : zmac.obj (.text:ZMacGetReq)
                  00229868    0000002c                         : bdb.obj (.text:bdb_NotifyCommissioningModeStart)
                  00229894    0000002c                         : zcl_green_power.obj (.text:gp_CreateCmdPayloadMsgList)
                  002298c0    0000002c                         : mac_low_level.obj (.text:halIntsAreEnabled)
                  002298ec    0000002c                         : mac_radio.obj (.text:macRadioInit)
                  00229918    0000002c                         : mac_radio.obj (.text:macRadioSetPanCoordinator)
                  00229944    0000002c                         : mac_radio.obj (.text:macRadioSetPanID)
                  00229970    0000002c                         : mac_radio.obj (.text:macRadioSetShortAddr)
                  0022999c    0000002c     zcl_sampleapps_ui.obj (.text:uiActionAppSecificMenu)
                  002299c8    0000002a     ZStackLib_Coord.lib : ZDNwkMgr.obj (.text:ZDNwkMgr_ProcessMsgCBs)
                  002299f2    0000002a                         : zmac.obj (.text:ZMacStartReq)
                  00229a1c    0000002a                         : bdb.obj (.text:bdb_processZDOMgs)
                  00229a46    0000002a                         : OSAL.obj (.text:osal_msg_deallocate)
                  00229a70    0000002a                         : saddr.obj (.text:sAddrCpy)
                  00229a9a    00000028                         : flash.obj (.text:FlashMainPageErase)
                  00229ac2    00000028                         : gp_common.obj (.text:GP_ProccessNotification)
                  00229aea    00000028     OnBoard.obj (.text:OnBoard_KeyCallback)
                  00229b12    00000002     --HOLE-- [fill = 0]
                  00229b14    00000028     OnBoard.obj (.text:RegisterForKeys)
                  00229b3c    00000028     ZStackLib_Coord.lib : ZDApp.obj (.text:ZDApp_ResetTimerStart)
                  00229b64    00000028                         : ZDSecMgr.obj (.text:ZDSecMgrDeviceValidate)
                  00229b8c    00000028                         : ZDSecMgr.obj (.text:ZDSecMgrInitNVKeyTables)
                  00229bb4    00000028                         : zmac.obj (.text:ZMacSetReq)
                  00229bdc    00000028                         : bdb.obj (.text:bdb_setChannel)
                  00229c04    00000028                         : mac_rx.obj (.text:macRxAckTxDoneCallback)
                  00229c2c    00000028                         : mac_tx.obj (.text:macTxTimestampCallback)
                  00229c54    00000028                         : zcl.obj (.text:zclCalcHdrSize)
                  00229c7c    00000028     zcl_samplelight.obj (.text:zclSampleLight_LevelControlMoveToLevelCB)
                  00229ca4    00000026     ZStackLib_Coord.lib : gp_common.obj (.text:GP_DataCnf)
                  00229cca    00000026                         : AF.obj (.text:afRegister)
                  00229cf0    00000026                         : BindingTable.obj (.text:bindingAddrMgsHelperConvertShort)
                  00229d16    00000026                         : hal_aes.obj (.text:sspAesDecryptHW)
                  00229d3c    00000026                         : hal_aes.obj (.text:sspAesEncryptHW)
                  00229d62    00000002     --HOLE-- [fill = 0]
                  00229d64    00000024                         : interrupt.obj (.text:IntMasterDisable)
                  00229d88    00000024                         : interrupt.obj (.text:IntMasterEnable)
                  00229dac    00000024                         : hal_systick.obj (.text:SysTickSetup)
                  00229dd0    00000024     zcl_sampleapps_ui.obj (.text:UI_ActionBackFromAppMenu)
                  00229df4    00000024     ZStackLib_Coord.lib : ZDNwkMgr.obj (.text:ZDNwkMgr_ProcessServerDiscRsp)
                  00229e18    00000024                         : ZDNwkMgr.obj (.text:ZDNwkMgr_SetNwkManagerAddr)
                  00229e3c    00000024                         : ZDObject.obj (.text:ZDO_Init)
                  00229e60    00000024                         : ZDApp.obj (.text:ZDO_NetworkStatusCB)
                  00229e84    00000024                         : ZDSecMgr.obj (.text:ZDSecMgrDeviceValidateRM)
                  00229ea8    00000024                         : ZDSecMgr.obj (.text:ZDSecMgrInit)
                  00229ecc    00000024                         : zmac.obj (.text:ZMacInit)
                  00229ef0    00000024                         : bdb.obj (.text:bdb_CreateRespondentList)
                  00229f14    00000024                         : bdb.obj (.text:gp_ChangeChannelReq)
                  00229f38    00000024                         : zcl_green_power.obj (.text:gp_CreateNotificationMsgList)
                  00229f5c    00000024                         : zcl_green_power.obj (.text:gp_ResetProxyBasicTblEntry)
                  00229f80    00000024                         : lcd_dogm128_6.obj (.text:lcdGetStringLength)
                  00229fa4    00000024                         : mac_rx.obj (.text:macRxHaltCleanup)
                  00229fc8    00000024                         : mac_tx.obj (.text:macTxInit)
                  00229fec    00000024                         : OSAL.obj (.text:osal_init_system)
                  0022a010    00000024     zcl_samplelight.obj (.text:zclSampleLight_UpdateLedState)
                  0022a034    00000022     ZStackLib_Coord.lib : gpio.obj (.text:GPIOPinIntStatus)
                  0022a056    00000022                         : gpio.obj (.text:GPIOPinTypeGPIOInput)
                  0022a078    00000022                         : gpio.obj (.text:GPIOPinTypeGPIOOutput)
                  0022a09a    00000022                         : gpio.obj (.text:GPIOPinTypeSSI)
                  0022a0bc    00000022                         : ssi.obj (.text:SSIBusy)
                  0022a0de    00000022                         : ssi.obj (.text:SSIDataGetNonBlocking)
                  0022a100    00000022                         : ZDSecMgr.obj (.text:ZDSecMgrDeviceRemoveByExtAddr)
                  0022a122    00000022                         : mac_autopend.obj (.text:macSrcMatchCheckEnableBit)
                  0022a144    00000022                         : gp_proxyTbl.obj (.text:pt_getAlias)
                  0022a166    00000022                         : gp_proxyTbl.obj (.text:pt_getSecFrameCounterCapabilities)
                  0022a188    00000022                         : gp_proxyTbl.obj (.text:pt_getSecurity)
                  0022a1aa    00000020                         : gpio.obj (.text:GPIOPinWrite)
                  0022a1ca    00000002     --HOLE-- [fill = 0]
                  0022a1cc    00000020                         : hal_aes.obj (.text:HalAesInit)
                  0022a1ec    00000020                         : hal_lcd.obj (.text:HalLcdWriteString)
                  0022a20c    00000020                         : ZDSecMgr.obj (.text:ZDSecMgrPermitJoiningTimeout)
                  0022a22c    00000020                         : bsp.obj (.text:bsp3V3DomainEnable)
                  0022a24c    00000020                         : mac_backoff_timer.obj (.text:macBackoffTimerReset)
                  0022a26c    00000020                         : mac_csp_tx.obj (.text:macCspTxCancelAckTimeoutCallback)
                  0022a28c    00000020                         : mac_mcu.obj (.text:macMcuRandomByte)
                  0022a2ac    00000020                         : nwk_globals.obj (.text:nwk_globals_init)
                  0022a2cc    00000020                         : OSAL.obj (.text:osal_build_uint16)
                  0022a2ec    00000020     zcl_sampleapps_ui.obj (.text:uiProcessBindNotification)
                  0022a30c    0000001e     ZStackLib_Coord.lib : gpio.obj (.text:GPIOPinIntDisable)
                  0022a32a    0000001e                         : gpio.obj (.text:GPIOPinIntEnable)
                  0022a348    0000001e                         : gpio.obj (.text:GPIOPortIntRegister)
                  0022a366    0000001e                         : sys_ctrl.obj (.text:SysCtrlDelay)
                  0022a384    0000001e                         : AF.obj (.text:afFindEndPointDesc)
                  0022a3a2    0000001e                         : bdb.obj (.text:bdb_nwkSteeringDeviceOnNwk)
                  0022a3c0    0000001e                         : mac_radio.obj (.text:macRadioEnergyDetectStop)
                  0022a3de    0000001e                         : zcl.obj (.text:zclGetAuthorizeCB)
                  0022a3fc    0000001e                         : zcl.obj (.text:zclGetReadWriteCB)
                  0022a41a    00000002     --HOLE-- [fill = 0]
                  0022a41c    0000001e     ZMain.obj (.text:zmain_lcd_init)
                  0022a43a    00000002     --HOLE-- [fill = 0]
                  0022a43c    0000001c     ZStackLib_Coord.lib : hal_sys_ctrl.obj (.text:SysCtrlClockStartSetting)
                  0022a458    0000001c                         : hal_sys_ctrl.obj (.text:SysCtrlPowIntClear)
                  0022a474    0000001c                         : ZDApp.obj (.text:ZDApp_NwkStateUpdateCB)
                  0022a490    0000001c                         : ZDApp.obj (.text:ZDApp_ResetTimerCancel)
                  0022a4ac    0000001c                         : ZDApp.obj (.text:ZDO_PermitJoinCB)
                  0022a4c8    0000001c                         : bdb_FindingAndBinding.obj (.text:bdb_exitFindingBindingWStatus)
                  0022a4e4    0000001c                         : mac_low_level.obj (.text:macLowLevelInit)
                  0022a500    0000001c                         : mac_mcu.obj (.text:macMcuRecordMaxRssiStart)
                  0022a51c    0000001c                         : mac_mcu.obj (.text:macMcuRecordMaxRssiStop)
                  0022a538    0000001c                         : mac_autopend.obj (.text:macSrcMatchGetExtAddrEnableBit)
                  0022a554    0000001c                         : mac_autopend.obj (.text:macSrcMatchGetExtAddrPendEnBit)
                  0022a570    0000001c                         : mac_autopend.obj (.text:macSrcMatchGetShortAddrEnableBit)
                  0022a58c    0000001c                         : mac_autopend.obj (.text:macSrcMatchGetShortAddrPendEnBit)
                  0022a5a8    0000001c                         : mac_tx.obj (.text:macTxFrameRetransmit)
                  0022a5c4    0000001c     zcl_samplelight.obj (.text:zclSampleLight_LevelControlStopCB)
                  0022a5e0    0000001a     ZStackLib_Coord.lib : ssi.obj (.text:SSIDataPut)
                  0022a5fa    0000001a                         : OSAL_Clock.obj (.text:osalAdjustTimer)
                  0022a614    0000001a                         : OSAL.obj (.text:osal_int_disable)
                  0022a62e    0000001a                         : OSAL.obj (.text:osal_int_enable)
                  0022a648    00000018                         : gpio.obj (.text:GPIOIntWakeupDisable)
                  0022a660    00000018                         : gpio.obj (.text:GPIOIntWakeupEnable)
                  0022a678    00000018                         : gpio.obj (.text:GPIOPinIntClear)
                  0022a690    00000018                         : gpio.obj (.text:GPIOPinRead)
                  0022a6a8    00000018                         : hal_key.obj (.text:HalKeyInit)
                  0022a6c0    00000018                         : hal_led.obj (.text:HalLedInit)
                  0022a6d8    00000018                         : hal_drivers.obj (.text:Hal_Init)
                  0022a6f0    00000018                         : systick.obj (.text:SysTickPeriodSet)
                  0022a708    00000018                         : ZDSecMgr.obj (.text:ZDSecMgrAssocDeviceAuth)
                  0022a720    00000018                         : BindingTable.obj (.text:bindRemoveEntry)
                  0022a738    00000018                         : gp_common.obj (.text:gp_RegisterCommissioningModeCB)
                  0022a750    00000018                         : gp_common.obj (.text:gp_RegisterGPChangeChannelReqCB)
                  0022a768    00000018                         : gp_common.obj (.text:gp_RegisterGPChangeChannelReqForBDBCB)
                  0022a780    00000018                         : gp_common.obj (.text:gp_u8CastPointer)
                  0022a798    00000018                         : mac_csp_tx.obj (.text:macCspTxIntIsr)
                  0022a7b0    00000018                         : mac_rx_onoff.obj (.text:macRxOnOffInit)
                  0022a7c8    00000018                         : mac_rx.obj (.text:macRxTxReset)
                  0022a7e0    00000018                         : OSAL.obj (.text:osal_memset)
                  0022a7f8    00000018                         : OSAL_PwrMgr.obj (.text:osal_pwrmgr_device)
                  0022a810    00000018                         : OSAL_PwrMgr.obj (.text:osal_pwrmgr_init)
                  0022a828    00000018     rtsv7M3_T_le_eabi.lib : args_main.obj (.text)
                  0022a840    00000018     zcl_sampleapps_ui.obj (.text:uiActionResetToFactoryNew)
                  0022a858    00000018     ZStackLib_Coord.lib : zcl.obj (.text:zcl_Init)
                  0022a870    00000016                         : BindingTable.obj (.text:BindSetDefaultNV)
                  0022a886    00000016                         : ssi.obj (.text:SSIDisable)
                  0022a89c    00000016                         : ssi.obj (.text:SSIEnable)
                  0022a8b2    00000016                         : ZDSecMgr.obj (.text:ZDSecMgrDeviceNew)
                  0022a8c8    00000016                         : armcm3flashutil.obj (.text:flash_write_word)
                  0022a8de    00000016                         : OSAL.obj (.text:osal_msg_send)
                  0022a8f4    00000014                         : hal_drivers.obj (.text:HalDriverInit)
                  0022a908    00000014                         : hal_lcd.obj (.text:HalLcdInit)
                  0022a91c    00000014                         : mac_autopend.obj (.text:MAC_SrcMatchCheckAllPending)
                  0022a930    00000014                         : ssi.obj (.text:SSIClockSourceSet)
                  0022a944    00000014                         : ZDApp.obj (.text:ZDApp_CoordStartPANIDConflictCB)
                  0022a958    00000014                         : zmac.obj (.text:ZMacAssociateReq)
                  0022a96c    00000014                         : zmac.obj (.text:ZMacPollReq)
                  0022a980    00000014                         : zmac.obj (.text:ZMacSrcMatchAddEntry)
                  0022a994    00000014                         : zmac.obj (.text:ZMacSrcMatchDeleteEntry)
                  0022a9a8    00000014                         : bdb.obj (.text:bdb_GenerateInstallCodeCRC)
                  0022a9bc    00000014                         : bdb_FindingAndBinding.obj (.text:bdb_RegisterBindNotificationCB)
                  0022a9d0    00000014                         : bdb.obj (.text:bdb_RegisterCommissioningStatusCB)
                  0022a9e4    00000014                         : bdb_FindingAndBinding.obj (.text:bdb_RegisterIdentifyTimeChangeCB)
                  0022a9f8    00000014                         : bdb.obj (.text:bdb_getZCLFrameCounter)
                  0022aa0c    00000014                         : bsp_key.obj (.text:bspKeyTimerIntRegister)
                  0022aa20    00000014     zcl_samplelight.obj (.text:gp_CommissioningMode)
                  0022aa34    00000014     ZStackLib_Coord.lib : mac_radio.obj (.text:macRadioComputeLQI)
                  0022aa48    00000014                         : mac_radio.obj (.text:macRadioSetIEEEAddr)
                  0022aa5c    00000014                         : mac_rx.obj (.text:macRxFifoOverflowIsr)
                  0022aa70    00000014                         : OSAL_Timers.obj (.text:osalDeleteTimer)
                  0022aa84    00000014     rtsv7M3_T_le_eabi.lib : _lock.obj (.text)
                  0022aa98    00000014                           : strlen.obj (.text)
                  0022aaac    00000014     zcl_samplelight.obj (.text:zclSampleLight_HandleKeys)
                  0022aac0    00000012     ZStackLib_Coord.lib : zmac.obj (.text:ZMacAssociateRsp)
                  0022aad2    00000012                         : zmac.obj (.text:ZMacSrcMatchAckAllPending)
                  0022aae4    00000012                         : bdb.obj (.text:bdb_resetLocalAction)
                  0022aaf6    00000012                         : bdb.obj (.text:bdb_setFN)
                  0022ab08    00000012     zcl_samplelight.obj (.text:gp_ChangeChannelReq)
                  0022ab1a    00000012     ZStackLib_Coord.lib : saddr.obj (.text:sAddrExtCpy)
                  0022ab2c    00000012                         : zcl.obj (.text:zcl_registerForMsg)
                  0022ab3e    00000002     --HOLE-- [fill = 0]
                  0022ab40    00000010                         : flash.obj (.text:FlashCacheModeGet)
                  0022ab50    00000010                         : interrupt.obj (.text:IntAltMapEnable)
                  0022ab60    00000010                         : systick.obj (.text:SysTickEnable)
                  0022ab70    00000010                         : systick.obj (.text:SysTickIntDisable)
                  0022ab80    00000010                         : systick.obj (.text:SysTickIntEnable)
                  0022ab90    00000010                         : ZDSecMgr.obj (.text:ZDSecMgrConfig)
                  0022aba0    00000010                         : bsp_key.obj (.text:bspKeyTimerDisable)
                  0022abb0    00000010                         : mac_radio_defs.obj (.text:macRadioTurnOffPower)
                  0022abc0    00000010                         : nwk_globals.obj (.text:nwk_Status)
                  0022abd0    00000010                         : mac_rx.obj (.text:rxPostRxUpdates)
                  0022abe0    00000010     zcl_samplelight.obj (.text:zclSampleLight_BasicResetCB)
                  0022abf0    0000000e     ZStackLib_Coord.lib : ZDObject.obj (.text:ZDODeviceSetup)
                  0022abfe    0000000e                         : ZDObject.obj (.text:ZDO_EndDeviceBindMatchTimeoutCB)
                  0022ac0c    0000000e                         : ZDApp.obj (.text:ZDO_SyncIndicationCB)
                  0022ac1a    0000000e                         : ZDSecMgr.obj (.text:ZDSecMgrAuthenticationCheck)
                  0022ac28    0000000e     rtsv7M3_T_le_eabi.lib : copy_decompress_none.obj (.text:decompress:none)
                  0022ac36    0000000e     ZStackLib_Coord.lib : hal_aes.obj (.text:ssp_HW_KeyInit)
                  0022ac44    0000000e     zcl_samplelight.obj (.text:zclSampleLight_UiActionToggleLight)
                  0022ac52    0000000c     ZStackLib_Coord.lib : cpu.obj (.text:CPUcpsid)
                  0022ac5e    0000000c                         : cpu.obj (.text:CPUcpsie)
                  0022ac6a    00000002     --HOLE-- [fill = 0]
                  0022ac6c    0000000c                         : sys_ctrl.obj (.text:SysCtrlReset)
                  0022ac78    0000000c                         : ZDConfig.obj (.text:ZDConfig_InitDescriptors)
                  0022ac84    0000000c                         : ZDApp.obj (.text:ZDO_PollConfirmCB)
                  0022ac90    0000000c                         : ZDSecMgr.obj (.text:ZDSecMgrVerifyKeyInd)
                  0022ac9c    0000000c                         : ZDiags.obj (.text:ZDiagsUpdateStats)
                  0022aca8    0000000c                         : bdb.obj (.text:bdb_ProcessOSALMsg)
                  0022acb4    0000000c                         : bdb.obj (.text:bdb_doTrustCenterRequireKeyExchange)
                  0022acc0    0000000c                         : bdb.obj (.text:bdb_isDeviceNonFactoryNew)
                  0022accc    0000000c                         : bdb.obj (.text:bdb_setNodeJoinLinkKeyType)
                  0022acd8    0000000c     rtsv7M3_T_le_eabi.lib : copy_zero_init.obj (.text:decompress:ZI)
                  0022ace4    0000000c     ZStackLib_Coord.lib : zcl_green_power.obj (.text:gp_GetHeadNotificationMsg)
                  0022acf0    0000000c                         : mac_backoff_timer.obj (.text:macBackoffTimerGetTrigger)
                  0022acfc    0000000c                         : mac_backoff_timer.obj (.text:macBackoffTimerPeriodIsr)
                  0022ad08    0000000c                         : mac_backoff_timer.obj (.text:macGetBackOffTimerRollover)
                  0022ad14    0000000c                         : mac_low_level.obj (.text:macLowLevelDiags)
                  0022ad20    0000000c                         : mac_radio.obj (.text:macRadioReset)
                  0022ad2c    0000000c                         : OSAL_Timers.obj (.text:osalTimerInit)
                  0022ad38    0000000c                         : OSAL_Timers.obj (.text:osal_GetSystemClock)
                  0022ad44    0000000c     zcl_samplelight.obj (.text:zclSampleLight_ProcessInDefaultRspCmd)
                  0022ad50    0000000c     ZStackLib_Coord.lib : zcl.obj (.text:zcl_getRawAFMsg)
                  0022ad5c    0000000a                         : zmac_cb.obj (.text:MAC_CbackCheckPending)
                  0022ad66    0000000a     ZMain.obj (.text:MT_GPDataCnf)
                  0022ad70    0000000a     ZMain.obj (.text:MT_GPDataInd)
                  0022ad7a    0000000a     ZMain.obj (.text:MT_GPSecReq)
                  0022ad84    0000000a     ZStackLib_Coord.lib : hal_systick.obj (.text:SysTickIntHandler)
                  0022ad8e    0000000a                         : ZDObject.obj (.text:ZDO_ProcessNodeDescRsp)
                  0022ad98    0000000a                         : ZDObject.obj (.text:ZDO_ProcessSimpleDescRsp)
                  0022ada2    0000000a                         : zmac.obj (.text:ZMacSrcMatchEnable)
                  0022adac    0000000a                         : hal_sleep.obj (.text:halSleepTimerIsr)
                  0022adb6    0000000a                         : osal_nv.obj (.text:osal_nv_init)
                  0022adc0    00000008     cx2538_startup_ccs.obj (.text:BusFaultHandler)
                  0022adc8    00000008     ZStackLib_Coord.lib : ccm.obj (.text:CCMInvAuthDecryptCheckResult)
                  0022add0    00000008     cx2538_startup_ccs.obj (.text:MPUBusFaultHandler)
                  0022add8    00000008     ZStackLib_Coord.lib : ZDObject.obj (.text:NLME_PermitJoiningTimeout)
                  0022ade0    00000008     OnBoard.obj (.text:Onboard_rand)
                  0022ade8    00000008     cx2538_startup_ccs.obj (.text:UsageFaultHandler)
                  0022adf0    00000008     ZStackLib_Coord.lib : ZDApp.obj (.text:ZDO_ManytoOneFailureIndicationCB)
                  0022adf8    00000008                         : zcl_green_power.obj (.text:gp_GetPHeadCmdPayload)
                  0022ae00    00000008                         : zcl_green_power.obj (.text:gp_GetPHeadNotification)
                  0022ae08    00000008                         : mac_backoff_timer.obj (.text:macBackoffTimerCompareIsr)
                  0022ae10    00000008                         : mac_low_level.obj (.text:macLowLevelResume)
                  0022ae18    00000008                         : mac_radio.obj (.text:macRadioEnergyDetectStart)
                  0022ae20    00000008                         : mac_radio.obj (.text:macRadioRandomByte)
                  0022ae28    00000008                         : OSAL.obj (.text:osal_rand)
                  0022ae30    00000008                         : OSAL.obj (.text:osal_start_system)
                  0022ae38    00000004                         : zmac_cb.obj (.text:MAC_CbackQueryRetransmit)
                  0022ae3c    00000004     rtsv7M3_T_le_eabi.lib : pre_init.obj (.text)

.const     0    0022ae40    000010cb     
                  0022ae40    000001d6     ZStackLib_Coord.lib : lcd_dogm128_6_alphabet.obj (.const:.string:lcd_alphabet)
                  0022b016    00000002                         : gp_common.obj (.const:greenPower_EP_OutClusterList)
                  0022b018    0000012c     zcl_samplelight_data.obj (.const:zclSampleLight_Attrs)
                  0022b144    000000c0     zcl_sampleapps_ui.obj (.const:gui_states_main)
                  0022b204    000000b8     ZStackLib_Coord.lib : zcl.obj (.const:zclCmdTable)
                  0022b2bc    000000b4                         : mac_pib.obj (.const:macPibTbl)
                  0022b370    000000a4                         : interrupt.obj (.const:g_pui32Regs)
                  0022b414    00000090                         : gp_common.obj (.const:zclGp_Attrs)
                  0022b4a4    00000088                         : ZDProfile.obj (.const:zdpMsgProcs)
                  0022b52c    0000006c                         : mac_pib.obj (.const:macPibDefaults)
                  0022b598    00000062                         : bdb_FindingAndBinding.obj (.const:bdb_ZclType2Clusters)
                  0022b5fa    00000041                         : gp_common.obj (.const:.string:$P$T0$1)
                  0022b63b    00000041                         : gp_common.obj (.const:.string:$P$T1$2)
                  0022b67c    00000041                         : gp_proxyTbl.obj (.const:.string:$P$T1$2)
                  0022b6bd    00000041                         : zcl_green_power.obj (.const:.string:$P$T1$2)
                  0022b6fe    00000041                         : gp_proxyTbl.obj (.const:.string:$P$T10$11)
                  0022b73f    00000041                         : gp_proxyTbl.obj (.const:.string:$P$T11$12)
                  0022b780    00000041                         : gp_proxyTbl.obj (.const:.string:$P$T12$13)
                  0022b7c1    00000041                         : gp_proxyTbl.obj (.const:.string:$P$T2$3)
                  0022b802    00000041                         : gp_common.obj (.const:.string:$P$T3$4)
                  0022b843    00000041                         : gp_proxyTbl.obj (.const:.string:$P$T3$4)
                  0022b884    00000041                         : zcl_green_power.obj (.const:.string:$P$T3$4)
                  0022b8c5    00000041                         : gp_proxyTbl.obj (.const:.string:$P$T4$5)
                  0022b906    00000041                         : gp_proxyTbl.obj (.const:.string:$P$T5$6)
                  0022b947    00000041                         : gp_common.obj (.const:.string:$P$T6$7)
                  0022b988    00000041                         : gp_proxyTbl.obj (.const:.string:$P$T6$7)
                  0022b9c9    00000041                         : gp_common.obj (.const:.string:$P$T7$8)
                  0022ba0a    00000041                         : gp_proxyTbl.obj (.const:.string:$P$T7$8)
                  0022ba4b    00000041                         : gp_proxyTbl.obj (.const:.string:$P$T9$10)
                  0022ba8c    0000003c                         : nwk_globals.obj (.const:timeoutValue)
                  0022bac8    00000038                         : gp_common.obj (.const:$P$T2$3)
                  0022bb00    00000031                         : nwk_globals.obj (.const)
                  0022bb31    00000001     OSAL_SampleLight.obj (.const)
                  0022bb32    00000030     ZStackLib_Coord.lib : bdb_FindingAndBinding.obj (.const:bdb_ZclType1Clusters)
                  0022bb62    00000001                         : ZDProfile.obj (.const)
                  0022bb63    00000001                         : gp_common.obj (.const)
                  0022bb64    0000002c     OSAL_SampleLight.obj (.const:tasksArr)
                  0022bb90    00000022     ZStackLib_Coord.lib : mac_radio_defs.obj (.const:.string:macRadioDefsTxPwrBare)
                  0022bbb2    00000001                         : mac_tx.obj (.const)
                  0022bbb3    00000001     --HOLE-- [fill = 0]
                  0022bbb4    00000020                         : ioc.obj (.const:g_pui32IOCPortAOverrideReg)
                  0022bbd4    00000020                         : ioc.obj (.const:g_pui32IOCPortASignSelectReg)
                  0022bbf4    00000020                         : ioc.obj (.const:g_pui32IOCPortBOverrideReg)
                  0022bc14    00000020                         : ioc.obj (.const:g_pui32IOCPortBSignSelectReg)
                  0022bc34    00000020                         : ioc.obj (.const:g_pui32IOCPortCOverrideReg)
                  0022bc54    00000020                         : ioc.obj (.const:g_pui32IOCPortCSignSelectReg)
                  0022bc74    00000020                         : ioc.obj (.const:g_pui32IOCPortDOverrideReg)
                  0022bc94    00000020                         : ioc.obj (.const:g_pui32IOCPortDSignSelectReg)
                  0022bcb4    00000018                         : sys_ctrl.obj (.const:g_pui32DCGCRegs)
                  0022bccc    00000018                         : sys_ctrl.obj (.const:g_pui32RCGCRegs)
                  0022bce4    00000018                         : sys_ctrl.obj (.const:g_pui32SCGCRegs)
                  0022bcfc    00000016                         : hal_lcd.obj (.const:.string:$P$T0$1)
                  0022bd12    00000016                         : hal_lcd.obj (.const:.string:$P$T1$2)
                  0022bd28    00000014                         : gp_common.obj (.const:$P$T5$6)
                  0022bd3c    00000014                         : interrupt.obj (.const:g_pui32DisRegs)
                  0022bd50    00000014                         : interrupt.obj (.const:g_pui32EnRegs)
                  0022bd64    00000014                         : sys_ctrl.obj (.const:g_pui32SRRegs)
                  0022bd78    00000014                         : interrupt.obj (.const:g_pui32UnpendRegs)
                  0022bd8c    00000012                         : zmac_cb.obj (.const:.string:zmacCBSizeTable)
                  0022bd9e    00000011                         : lcd_srf06eb.obj (.const:.string:lcdInitCmd)
                  0022bdaf    00000011     zcl_samplelight.obj (.const:.string:sLightOff)
                  0022bdc0    00000011     zcl_samplelight.obj (.const:.string:sLightOn)
                  0022bdd1    00000011     zcl_samplelight_data.obj (.const:.string:zclSampleLight_DateCode)
                  0022bde2    00000011     zcl_samplelight_data.obj (.const:.string:zclSampleLight_ManufacturerName)
                  0022bdf3    00000011     zcl_samplelight_data.obj (.const:.string:zclSampleLight_ModelId)
                  0022be04    00000010     ZStackLib_Coord.lib : gp_common.obj (.const:.string:$P$T8$9)
                  0022be14    00000010                         : gp_common.obj (.const:.string:$P$T9$10)
                  0022be24    00000010                         : nwk_globals.obj (.const:.string:defaultKey)
                  0022be34    00000010                         : nwk_globals.obj (.const:.string:defaultTCLinkKey)
                  0022be44    00000010                         : gp_common.obj (.const:.string:zgpSharedKey)
                  0022be54    00000010     zcl_samplelight_data.obj (.const:zclSampleLight_Cmds)
                  0022be64    00000010     zcl_samplelight.obj (.const:zclSampleLight_UiStatesMain)
                  0022be74    0000000c     ZStackLib_Coord.lib : zcl_green_power.obj (.const:$P$T2$3)
                  0022be80    0000000c     zcl_samplelight_data.obj (.const:zclSampleLight_InClusterList)
                  0022be8c    0000000a     ZStackLib_Coord.lib : bdb_FindingAndBinding.obj (.const:$P$T0$1)
                  0022be96    0000000a                         : gp_proxyTbl.obj (.const:.string:$P$T0$1)
                  0022bea0    0000000a                         : zcl_green_power.obj (.const:.string:$P$T0$1)
                  0022beaa    0000000a                         : gp_proxyTbl.obj (.const:.string:$P$T8$9)
                  0022beb4    00000008                         : gp_common.obj (.const:$P$T4$5)
                  0022bebc    00000008     ZMain.obj (.const:.string:$P$T0$1)
                  0022bec4    00000008     ZStackLib_Coord.lib : ZDApp.obj (.const:.string:$P$T0$1)
                  0022becc    00000008                         : ZDSecMgr.obj (.const:.string:$P$T0$1)
                  0022bed4    00000008                         : ZDObject.obj (.const:.string:$P$T0$3)
                  0022bedc    00000008                         : ZGlobals.obj (.const:zgItemTable)
                  0022bee4    00000007                         : mac_cfg.obj (.const:macCfg)
                  0022beeb    00000001     --HOLE-- [fill = 0]
                  0022beec    00000007     zcl_samplelight_data.obj (.const)
                  0022bef3    00000001     --HOLE-- [fill = 0]
                  0022bef4    00000006     ZStackLib_Coord.lib : osal_nv.obj (.const:hotIds)
                  0022befa    00000005                         : ZDSecMgr.obj (.const)
                  0022beff    00000004                         : mac_rx.obj (.const:.string:macRxAddrLen)
                  0022bf03    00000001     --HOLE-- [fill = 0]
                  0022bf04    00000004     zcl_sampleapps_ui.obj (.const:.string)
                  0022bf08    00000003     ZStackLib_Coord.lib : lcd_dogm128_6.obj (.const:.string:$P$T0$1)

.rodata    0    0022bf0c    000000cc     
                  0022bf0c    000000cc     TIMAC-CC2538.a : mac_beacon.o (.rodata)

.cinit     0    0022bfd8    00000200     
                  0022bfd8    000001cb     (.cinit..data.load) [load image, compression = lzss]
                  0022c1a3    00000001     --HOLE-- [fill = 0]
                  0022c1a4    0000000c     (__TI_handler_table)
                  0022c1b0    00000008     (.cinit..bss.load) [load image, compression = zero_init]
                  0022c1b8    00000008     (.cinit..vtable.load) [load image, compression = zero_init]
                  0022c1c0    00000018     (__TI_cinit_table)

.init_array 
*          0    00200000    00000000     UNINITIALIZED

.flashcca 
*          0    0027ffd4    0000000c     
                  0027ffd4    0000000c     cx2538_setup.obj (.flashcca:retain)

.vtable    0    20004000    00000100     UNINITIALIZED
                  20004000    00000100     ZStackLib_Coord.lib : interrupt.obj (.vtable)

.bss       0    20004100    0000284b     UNINITIALIZED
                  20004100    00001800     ZStackLib_Coord.lib : OSAL_Memory.obj (.bss:theHeap)
                  20005900    000002f4     (.common:AssociatedDevList)
                  20005bf4    000001e0     (.common:TCLinkKeyFrmCntr)
                  20005dd4    000001c0     (.common:neighborTable)
                  20005f94    00000140     (.common:rtgTable)
                  200060d4    00000078     AllDevice.a : nwk.o (.bss)
                  2000614c    0000006c     (.common:macPib)
                  200061b8    00000060     TIMAC-CC2538.a : mac_beacon.o (.bss)
                  20006218    00000060     (.common:rtgSrcTable)
                  20006278    00000054                    : mac_beacon.o (.bss)
                  200062cc    00000050     ZStackLib_Coord.lib : ZDProfile.obj (.bss:ZDP_Buf)
                  2000631c    00000050     (.common:rtDiscTable)
                  2000636c    0000004c     TIMAC-CC2538.a : mac_beacon.o (.bss)
                  200063b8    0000004c                    : mac_beacon.o (.bss)
                  20006404    00000048     (.common:bcastTable)
                  2000644c    00000044                    : mac_beacon.o (.bss)
                  20006490    00000038                    : mac_beacon.o (.bss)
                  200064c8    00000038     (.common:BindingTable)
                  20006500    00000034     ZStackLib_Coord.lib : hal_led.obj (.bss:HalLedStatusControl)
                  20006534    00000034                         : ZDObject.obj (.bss:ZDOBuildBuf)
                  20006568    00000024     (.common:ApsLinkKeyFrmCntr)
                  2000658c    00000024     (.common:bcastHoldAckMask)
                  200065b0    00000024     (.common:zdoCBFunc)
                  200065d4    00000020                         : io_pin_int.obj (.bss:pfnPortAIsr)
                  200065f4    00000020                         : io_pin_int.obj (.bss:pfnPortBIsr)
                  20006614    00000020                         : io_pin_int.obj (.bss:pfnPortCIsr)
                  20006634    00000020                         : io_pin_int.obj (.bss:pfnPortDIsr)
                  20006654    0000001c     AllDevice.a : nwk_util.o (.bss)
                  20006670    0000001b     zcl_sampleapps_ui.obj (.bss)
                  2000668b    00000001     AllDevice.a : nwk.o (.bss)
                  2000668c    00000018                 : dGP_stub.o (.bss)
                  200066a4    00000018     (.common:rtgSrcRelayList)
                  200066bc    00000014     ZStackLib_Coord.lib : bsp_key.obj (.bss:bspKeysIsrTable)
                  200066d0    00000014     (.common:bdb_FindingBindingTargetSimpleDesc)
                  200066e4    00000014     (.common:notMyChildList)
                  200066f8    00000014     (.common:zclSampleLight_LocationDescription)
                  2000670c    00000010     AllDevice.a : APS.o (.bss)
                  2000671c    00000010                 : APSMEDE.o (.bss)
                  2000672c    00000010                 : dGP_stub.o (.bss)
                  2000673c    00000010                 : nwk_util.o (.bss)
                  2000674c    00000010     ZStackLib_Coord.lib : io_pin_int.obj (.bss)
                  2000675c    00000010                         : mac_rx.obj (.bss)
                  2000676c    00000010                         : aes.obj (.bss:ui32temp$1)
                  2000677c    00000010     (.common:macTxAckIsrTimer)
                  2000678c    0000000e     (.common:ZDO_Config_Node_Descriptor)
                  2000679a    00000002     AllDevice.a : NLMEDE.o (.bss)
                  2000679c    0000000c                 : APSMEDE.o (.bss)
                  200067a8    0000000c                 : NLMEDE.o (.bss)
                  200067b4    0000000c                 : nwk_util.o (.bss)
                  200067c0    0000000c     ZStackLib_Coord.lib : bsp_key.obj (.bss)
                  200067cc    0000000c                         : osal_nv.obj (.bss:pgLost)
                  200067d8    0000000c                         : osal_nv.obj (.bss:pgOff)
                  200067e4    0000000c     (.common:ZDNwkMgr_MgmtNwkUpdateReq)
                  200067f0    0000000c     (.common:aliasConflictAnnce)
                  200067fc    0000000c     (.common:bcastHoldHandle)
                  20006808    0000000c     (.common:zclSampleLight_DstAddr)
                  20006814    0000000a     (.common:ZDAppNwkAddr)
                  2000681e    0000000a     (.common:ZDNwkMgr_MgmtNwkUpdateNotifyAddr)
                  20006828    00000008     AllDevice.a : AddrMgr.o (.bss)
                  20006830    00000008                 : nwk.o (.bss)
                  20006838    00000008                 : nwk_util.o (.bss)
                  20006840    00000008                 : ssp.o (.bss)
                  20006848    00000008                 : ssp.o (.bss)
                  20006850    00000008     ZStackLib_Coord.lib : hal_key.obj (.bss)
                  20006858    00000008                         : mac_backoff_timer.obj (.bss)
                  20006860    00000008                         : osal_nv.obj (.bss:hotOff)
                  20006868    00000008     (.common:ZDO_UseExtendedPANID)
                  20006870    00000008     (.common:aExtendedAddress)
                  20006878    00000008     (.common:pwrmgr_attribute)
                  20006880    00000008     (.common:zgExtendedPANID)
                  20006888    00000005                         : OSAL_Memory.obj (.bss)
                  2000688d    00000003                         : hal_led.obj (.bss)
                  20006890    00000004     AllDevice.a : APS.o (.bss)
                  20006894    00000004                 : APS.o (.bss)
                  20006898    00000004                 : APS.o (.bss)
                  2000689c    00000004                 : APSMEDE.o (.bss)
                  200068a0    00000004                 : APSMEDE.o (.bss)
                  200068a4    00000004                 : NLMEDE.o (.bss)
                  200068a8    00000004                 : aps_groups.o (.bss)
                  200068ac    00000004                 : cGP_stub.o (.bss)
                  200068b0    00000004                 : dGP_stub.o (.bss)
                  200068b4    00000004                 : dGP_stub.o (.bss)
                  200068b8    00000004                 : nwk_bufs.o (.bss)
                  200068bc    00000004                 : nwk_bufs.o (.bss)
                  200068c0    00000004                 : nwk_util.o (.bss)
                  200068c4    00000004                 : ssp.o (.bss)
                  200068c8    00000004     ZStackLib_Coord.lib : OSAL_Timers.obj (.bss)
                  200068cc    00000004                         : ZDObject.obj (.bss)
                  200068d0    00000004                         : mac_tx.obj (.bss)
                  200068d4    00000004                         : osal_nv.obj (.bss:hotPg)
                  200068d8    00000004                         : mac_rx.obj (.bss:rxBuf)
                  200068dc    00000004     (.common:ZDO_Config_Power_Descriptor)
                  200068e0    00000004     (.common:_ScanChannels)
                  200068e4    00000004     (.common:bdbCommissioningProcedureState)
                  200068e8    00000004     (.common:epList)
                  200068ec    00000004     (.common:gp_DataIndList)
                  200068f0    00000004     (.common:osal_qHead)
                  200068f4    00000004     (.common:runtimeChannel)
                  200068f8    00000004     (.common:tasksEvents)
                  200068fc    00000004     (.common:timerHead)
                  20006900    00000004     (.common:zclSampleLight_CurrentLevel32)
                  20006904    00000004     (.common:zclSampleLight_Rate32)
                  20006908    00000002     AllDevice.a : NLMEDE.o (.bss)
                  2000690a    00000002                 : NLMEDE.o (.bss)
                  2000690c    00000002                 : dGP_stub.o (.bss)
                  2000690e    00000002                 : nwk_util.o (.bss)
                  20006910    00000002     ZStackLib_Coord.lib : mac_radio.obj (.bss)
                  20006912    00000002     (.common:ZDNwkMgr_TotalTransmissions)
                  20006914    00000002     (.common:ZDNwkMgr_TxFailures)
                  20006916    00000002     (.common:zclSampleLight_IdentifyTime)
                  20006918    00000002     (.common:zclSampleLight_LevelOffTransitionTime)
                  2000691a    00000002     (.common:zclSampleLight_LevelOnOffTransitionTime)
                  2000691c    00000002     (.common:zclSampleLight_LevelOnTransitionTime)
                  2000691e    00000002     (.common:zclSampleLight_LevelRemainingTime)
                  20006920    00000001     AllDevice.a : nwk_util.o (.bss)
                  20006921    00000001                 : nwk_util.o (.bss)
                  20006922    00000001                 : rtg.o (.bss)
                  20006923    00000001                 : rtg.o (.bss)
                  20006924    00000001                 : ssp.o (.bss)
                  20006925    00000001     ZStackLib_Coord.lib : mac_mcu.obj (.bss)
                  20006926    00000001                         : osal_nv.obj (.bss)
                  20006927    00000001     (.common:Hal_KeyIntEnable)
                  20006928    00000001     (.common:Hal_TaskID)
                  20006929    00000001     (.common:OnboardKeyIntEnable)
                  2000692a    00000001     (.common:ZDAppTaskID)
                  2000692b    00000001     (.common:ZDApp_LeaveCtrl)
                  2000692c    00000001     (.common:ZDNwkMgr_NewChannel)
                  2000692d    00000001     (.common:ZDSecMgrPermitJoiningEnabled)
                  2000692e    00000001     (.common:ZDSecMgrPermitJoiningTimed)
                  2000692f    00000001     (.common:_tmpRejoinState)
                  20006930    00000001     (.common:bdb_TaskID)
                  20006931    00000001     (.common:macPhyChannel)
                  20006932    00000001     (.common:macPhyTxPower)
                  20006933    00000001     (.common:macRxActive)
                  20006934    00000001     (.common:macRxEnableFlags)
                  20006935    00000001     (.common:macRxFilter)
                  20006936    00000001     (.common:macRxOnFlag)
                  20006937    00000001     (.common:macRxOutgoingAckFlag)
                  20006938    00000001     (.common:macTxActive)
                  20006939    00000001     (.common:macTxBe)
                  2000693a    00000001     (.common:macTxCsmaBackoffDelay)
                  2000693b    00000001     (.common:macTxType)
                  2000693c    00000001     (.common:nwkStatus)
                  2000693d    00000001     (.common:zclSampleLight_DeviceEnable)
                  2000693e    00000001     (.common:zclSampleLight_LevelChangeCmd)
                  2000693f    00000001     (.common:zclSampleLight_LevelCurrentLevel)
                  20006940    00000001     (.common:zclSampleLight_LevelDefaultMoveRate)
                  20006941    00000001     (.common:zclSampleLight_LevelLastLevel)
                  20006942    00000001     (.common:zclSampleLight_LevelOnLevel)
                  20006943    00000001     (.common:zclSampleLight_NewLevel)
                  20006944    00000001     (.common:zclSampleLight_NewLevelUp)
                  20006945    00000001     (.common:zclSampleLight_OnOff)
                  20006946    00000001     (.common:zclSampleLight_PhysicalEnvironment)
                  20006947    00000001     (.common:zclSampleLight_TaskID)
                  20006948    00000001     (.common:zclSampleLight_WithOnOff)
                  20006949    00000001     (.common:zcl_TaskID)
                  2000694a    00000001     (.common:zgUseDefaultTCLK)

.data      0    2000694c    00000862     UNINITIALIZED
                  2000694c    00000400     ZStackLib_Coord.lib : lcd_dogm128_6.obj (.data:lcdDefaultBuffer)
                  20006d4c    00000080     TIMAC-CC2538.a : mac_beacon.o (.data)
                  20006dcc    00000080                    : mac_beacon.o (.data)
                  20006e4c    0000005a     ZStackLib_Coord.lib : ZGlobals.obj (.data)
                  20006ea6    00000002     AllDevice.a : nwk_util.o (.data)
                  20006ea8    00000040     zcl_samplelight.obj (.data:zclSampleLight_CmdCallbacks)
                  20006ee8    0000002c     ZStackLib_Coord.lib : bdb.obj (.data)
                  20006f14    00000029                         : gp_common.obj (.data)
                  20006f3d    00000003                         : gp_common.obj (.data:zclGp_gppActiveFunctionality)
                  20006f40    00000023     zcl_sampleapps_ui.obj (.data)
                  20006f63    00000001     AllDevice.a : NLMEDE.o (.data)
                  20006f64    00000020                 : APS.o (.data)
                  20006f84    00000020     ZStackLib_Coord.lib : BindingTable.obj (.data)
                  20006fa4    00000020                         : zcl.obj (.data)
                  20006fc4    0000001c                         : ZDNwkMgr.obj (.data)
                  20006fe0    00000018                         : mac_mcu.obj (.data)
                  20006ff8    00000014     AllDevice.a : nwk.o (.data)
                  2000700c    00000014     TIMAC-CC2538.a : mac_beacon.o (.data)
                  20007020    00000014     ZStackLib_Coord.lib : ZDApp.obj (.data)
                  20007034    00000014                         : bdb.obj (.data:bdbAttributes)
                  20007048    00000014                         : gp_common.obj (.data:greenPower_EP_SimpleDesc)
                  2000705c    00000014     zcl_samplelight_data.obj (.data:zclSampleLight_SimpleDesc)
                  20007070    00000012     zcl_sampleapps_ui.obj (.data:uiInstallCode)
                  20007082    00000002     AllDevice.a : reflecttrack.o (.data)
                  20007084    00000011     ZStackLib_Coord.lib : ZDSecMgr.obj (.data)
                  20007095    00000011     zcl_samplelight.obj (.data:sLightLevel)
                  200070a6    00000002     ZStackLib_Coord.lib : mac_autopend.obj (.data)
                  200070a8    00000010                         : ZDApp.obj (.data:ZDApp_epDesc)
                  200070b8    00000010                         : OSAL_Clock.obj (.data)
                  200070c8    00000010                         : ZDProfile.obj (.data)
                  200070d8    00000010                         : zcl_green_power.obj (.data)
                  200070e8    00000010     zcl_samplelight.obj (.data:sampleLight_TestEp)
                  200070f8    00000010     ZStackLib_Coord.lib : gp_common.obj (.data:zclGpProxy_CmdCallbacks)
                  20007108    00000010                         : gp_common.obj (.data:zclGp_gpLinkKey)
                  20007118    00000010                         : gp_common.obj (.data:zclGp_gpSharedSecurityKey)
                  20007128    0000000c     rtsv7M3_T_le_eabi.lib : exit.obj (.data:$O1$$)
                  20007134    0000000c     AllDevice.a : aps_frag.o (.data)
                  20007140    0000000c     ZStackLib_Coord.lib : ZDObject.obj (.data)
                  2000714c    00000009                         : bdb_FindingAndBinding.obj (.data)
                  20007155    00000003                         : gp_common.obj (.data:zclGp_gppFunctionality)
                  20007158    00000008     rtsv7M3_T_le_eabi.lib : _lock.obj (.data:$O1$$)
                  20007160    00000008     AllDevice.a : reflecttrack.o (.data)
                  20007168    00000008     ZStackLib_Coord.lib : zmac_cb.obj (.data)
                  20007170    00000008     zcl_sampleapps_ui.obj (.data:uiInstallCodeAddr)
                  20007178    00000008     ZStackLib_Coord.lib : ZGlobals.obj (.data:zgApsTrustCenterAddr)
                  20007180    00000008                         : ZGlobals.obj (.data:zgApsUseExtendedPANID)
                  20007188    00000005                         : zcl_general.obj (.data)
                  2000718d    00000001     AllDevice.a : nwk_util.o (.data)
                  2000718e    00000001     OnBoard.obj (.data)
                  2000718f    00000001     ZStackLib_Coord.lib : AF.obj (.data)
                  20007190    00000004                         : hal_aes.obj (.data)
                  20007194    00000004                         : interrupt.obj (.data)
                  20007198    00000004                         : zmac.obj (.data)
                  2000719c    00000004                         : osal_nv.obj (.data:hdrData)
                  200071a0    00000004     rtsv7M3_T_le_eabi.lib : stkdepth_vars.obj (.data)
                  200071a4    00000004     zcl_sampleapps_ui.obj (.data:uiNetworkOpenStateLedDutyCycle)
                  200071a8    00000001     ZStackLib_Coord.lib : OSAL.obj (.data)
                  200071a9    00000001                         : aes.obj (.data)
                  200071aa    00000001                         : bsp.obj (.data)
                  200071ab    00000001                         : mac_sleep.obj (.data)
                  200071ac    00000001                         : nwk_globals.obj (.data)
                  200071ad    00000001     zcl_samplelight_data.obj (.data)

.stack     0    20007f00    00000100     UNINITIALIZED
                  20007f00    00000100     --HOLE--

MODULE SUMMARY

       Module                       code     ro data   rw data
       ------                       ----     -------   -------
    .\
       zcl_sampleapps_ui.obj        6396     196       92     
       zcl_samplelight.obj          2388     50        123    
       ZMain.obj                    796      8         0      
       zcl_samplelight_data.obj     164      386       57     
       cx2538_startup_ccs.obj       176      256       0      
       OSAL_SampleLight.obj         196      45        4      
       OnBoard.obj                  224      0         10     
       zcl_ha.obj                   128      0         0      
       cx2538_setup.obj             0        12        0      
    +--+----------------------------+--------+---------+---------+
       Total:                       10468    953       286    
                                                              
    C:\Development\Ti\zstack3.1\ZCoord\Libraries\CC2538\bin\AllDevice.a
       nwk_util.o                   9848     0         75     
       nwk.o                        6580     0         149    
       rtg.o                        6384     0         2      
       APSMEDE.o                    5856     0         36     
       dGP_stub.o                   2800     0         50     
       AssocList.o                  2600     0         0      
       NLMEDE.o                     2324     0         23     
       APS.o                        2100     0         60     
       ssp.o                        1908     0         21     
       aps_frag.o                   1496     0         12     
       nwk_bufs.o                   1328     0         8      
       AddrMgr.o                    1196     0         8      
       NLMEDE_CB.o                  1044     0         0      
       APSMEDE_CB.o                 736      0         0      
       reflecttrack.o               618      0         10     
       aps_groups.o                 584      0         4      
       aps_util.o                   556      0         0      
       ssp_hash.o                   442      0         0      
       cGP_stub.o                   404      0         4      
    +--+----------------------------+--------+---------+---------+
       Total:                       48804    0         462    
                                                              
    C:\Development\Ti\zstack3.1\ZCoord\Libraries\TIMAC\bin\TIMAC-CC2538.a
       mac_beacon.o                 13472    204       732    
    +--+----------------------------+--------+---------+---------+
       Total:                       13472    204       732    
                                                              
    C:\Development\Ti\zstack3.1\ZStackLib\Debug Coordinator\ZStackLib_Coord.lib
       zcl.obj                      11992    184       33     
       ZDObject.obj                 7752     8         68     
       OSAL_Memory.obj              664      0         6149   
       gp_common.obj                5926     604       119    
       ZDApp.obj                    5764     8         98     
       osal_nv.obj                  5266     6         41     
       bdb.obj                      5194     0         69     
       ZDProfile.obj                4896     137       96     
       ZDSecMgr.obj                 4510     13        535    
       gp_proxyTbl.obj              3696     735       12     
       BindingTable.obj             3602     0         32     
       zcl_green_power.obj          2878     152       16     
       mac_rx.obj                   2868     4         23     
       nwk_globals.obj              614      141       1921   
       bdb_FindingAndBinding.obj    2302     156       29     
       OSAL.obj                     2170     0         5      
       mac_mcu.obj                  2136     0         25     
       AF.obj                       2152     0         5      
       ZDNwkMgr.obj                 1762     0         55     
       ccm.obj                      1668     0         0      
       mac_csp_tx.obj               1532     0         0      
       lcd_dogm128_6.obj            488      3         1024   
       mac_autopend.obj             1422     0         2      
       io_pin_int.obj               1232     0         144    
       mac_tx.obj                   1344     1         24     
       hal_led.obj                  1140     0         55     
       mac_pib.obj                  714      288       108    
       interrupt.obj                608      224       260    
       ioc.obj                      820      256       0      
       mac_radio.obj                972      0         4      
       OSAL_Timers.obj              966      0         8      
       zmac_cb.obj                  926      18        8      
       sys_ctrl.obj                 810      92        0      
       gpio.obj                     892      0         0      
       bsp_key.obj                  804      0         32     
       aes.obj                      788      0         17     
       ZGlobals.obj                 644      8         115    
       zmac.obj                     726      0         8      
       mac_backoff_timer.obj        722      0         8      
       hal_key.obj                  686      0         9      
       mac_rx_onoff.obj             684      0         2      
       zcl_general.obj              644      0         5      
       armcm3flashutil.obj          536      0         0      
       lcd_dogm128_6_alphabet.obj   0        470       0      
       hal_sys_ctrl.obj             416      0         0      
       lcd_srf06eb.obj              300      17        0      
       ZDConfig.obj                 280      0         18     
       ssi.obj                      298      0         0      
       mac_sleep.obj                288      0         1      
       hal_lcd.obj                  212      44        0      
       mac_low_level.obj            244      0         0      
       mac_mem.obj                  236      0         0      
       hal_ccm.obj                  234      0         0      
       saddr.obj                    214      0         0      
       hal_drivers.obj              190      0         1      
       mac_radio_defs.obj           152      34        0      
       bsp.obj                      184      0         1      
       OSAL_Clock.obj               142      0         16     
       hal_aes.obj                  122      0         4      
       flash.obj                    116      0         0      
       systick.obj                  72       0         0      
       hal_adc.obj                  60       0         0      
       OSAL_PwrMgr.obj              48       0         8      
       hal_systick.obj              46       0         0      
       cpu.obj                      24       0         0      
       ZDiags.obj                   12       0         0      
       hal_sleep.obj                10       0         0      
       mac_cfg.obj                  0        7         0      
       hal_assert.obj               2        0         0      
    +--+----------------------------+--------+---------+---------+
       Total:                       101814   3610      11213  
                                                              
    C:\ti\ccsv6\tools\compiler\ti-cgt-arm_16.9.2.LTS\lib\rtsv7M3_T_le_eabi.lib
       memcpy_t2.obj                156      0         0      
       memset_t2.obj                122      0         0      
       autoinit.obj                 112      0         0      
       copy_decompress_lzss.obj     104      0         0      
       exit.obj                     84       0         12     
       cpy_tbl.obj                  76       0         0      
       boot.obj                     64       0         0      
       _lock.obj                    20       0         8      
       args_main.obj                24       0         0      
       strlen.obj                   20       0         0      
       copy_decompress_none.obj     14       0         0      
       copy_zero_init.obj           12       0         0      
       pre_init.obj                 4        0         0      
       stkdepth_vars.obj            0        0         4      
       mpu_init.obj                 2        0         0      
       startup.obj                  2        0         0      
    +--+----------------------------+--------+---------+---------+
       Total:                       816      0         24     
                                                              
       Stack:                       0        0         256    
       Linker Generated:            0        511       0      
    +--+----------------------------+--------+---------+---------+
       Grand Total:                 175374   5278      12973  


LINKER GENERATED COPY TABLES

__TI_cinit_table @ 0022c1c0 records: 3, size/record: 8, table size: 24
	.data: load addr=0022bfd8, load size=000001cb bytes, run addr=2000694c, run size=00000862 bytes, compression=lzss
	.bss: load addr=0022c1b0, load size=00000008 bytes, run addr=20004100, run size=0000284b bytes, compression=zero_init
	.vtable: load addr=0022c1b8, load size=00000008 bytes, run addr=20004000, run size=00000100 bytes, compression=zero_init


LINKER GENERATED HANDLER TABLE

__TI_handler_table @ 0022c1a4 records: 3, size/record: 4, table size: 12
	index: 0, handler: __TI_zero_init
	index: 1, handler: __TI_decompress_lzss
	index: 2, handler: __TI_decompress_none


GLOBAL SYMBOLS: SORTED ALPHABETICALLY BY Name 

address   name                                         
-------   ----                                         
00229685  AESECBCheckResult                            
00222aed  AESECBGetResult                              
0021c535  AESECBStart                                  
00218995  AESLoadKey                                   
002129d1  AF_DataRequest                               
2000718f  AF_DataRequestDiscoverRoute                  
20006f68  AIB_MaxBindingTime                           
20006f6c  AIB_apsTrustCenterAddress                    
20006f7c  AIB_apsUseExtendedPANID                      
20006f66  AIB_apsUseInsecureJoin                       
00211299  APSDE_DataCnf                                
00211281  APSDE_DataConfirm                            
002112a3  APSDE_DataIndication                         
00208ebd  APSDE_DataReq                                
002090c9  APSDE_DataReqMTU                             
00209cf9  APSDE_FrameAlloc                             
00209dc1  APSDE_FrameSend                              
00213c25  APSDE_ParseMsg                               
002090c1  APSDE_SetPreProcessFnp                       
0020e0a5  APSF_Init                                    
0020e31d  APSF_ProcessAck                              
0020e5af  APSF_ProcessEvent                            
0020e141  APSF_SendFragmented                          
0020e5a5  APSF_SendOsalMsg                             
20007134  APSF_taskID                                  
00209edb  APSME_AddTCLinkKey                           
002090f7  APSME_BindRequest                            
00209c8b  APSME_CmdPkt                                 
002114e9  APSME_ConfirmKeyInd                          
0020a453  APSME_ConfirmKeyReq                          
00209e3d  APSME_EraseICEntry                           
00209e35  APSME_FrameSecurityApply                     
00209e09  APSME_FrameSecurityRemove                    
0020912f  APSME_GetRequest                             
0020d7bd  APSME_HoldDataRequests                       
0020a54f  APSME_IsDistributedSecurity                  
002295f9  APSME_KeyFwdToChild                          
00228e75  APSME_LinkKeyNVIdGet                         
002091af  APSME_LookupExtAddr                          
00209215  APSME_LookupNwkAddr                          
002113a9  APSME_RemoveDeviceInd                        
0020a23b  APSME_RemoveDeviceReq                        
002113d7  APSME_RequestKeyInd                          
0020a29d  APSME_RequestKeyReq                          
0020a165  APSME_SearchTCLinkKeyEntry                   
0020a541  APSME_SecurityCM_CD                          
0020a525  APSME_SecurityCM_ED                          
0020a533  APSME_SecurityCM_RD                          
0020a4e7  APSME_SecurityNM                             
0020a517  APSME_SecurityRM_CD                          
0020a4f5  APSME_SecurityRM_ED                          
0020a509  APSME_SecurityRM_RD                          
00209e89  APSME_SetDefaultKey                          
00209185  APSME_SetRequest                             
00211409  APSME_SwitchKeyInd                           
0020a40d  APSME_SwitchKeyReq                           
0021b635  APSME_TCLinkKeyInit                          
00218de9  APSME_TCLinkKeyLoad                          
002194e5  APSME_TCLinkKeySync                          
0021133f  APSME_TransportKeyInd                        
00209f9d  APSME_TransportKeyReq                        
0020911d  APSME_UnBindRequest                          
00211379  APSME_UpdateDeviceInd                        
0020a1e9  APSME_UpdateDeviceReq                        
00211431  APSME_VerifyKeyInd                           
0020a313  APSME_VerifyKeyReq                           
20006f67  APS_AllowDataRequests                        
0020d25b  APS_CmdInd                                   
20006f65  APS_Counter                                  
0020d121  APS_Init                                     
0020d0fd  APS_ReflectorInit                            
0020d23f  APS_SetEndDeviceBindTimeout                  
20006f64  APS_TaskID                                   
0020d151  APS_event_loop                               
20006f78  APS_lastDupTime                              
0020f239  AddrMgrEntryAddRef                           
0020f337  AddrMgrEntryGet                              
0020f2d7  AddrMgrEntryLookupExt                        
0020f26f  AddrMgrEntryLookupNwk                        
0020f20b  AddrMgrEntryRelease                          
0020f37b  AddrMgrEntryUpdate                           
0020f199  AddrMgrExtAddrEqual                          
0020f1b7  AddrMgrExtAddrLookup                         
0020f171  AddrMgrExtAddrSet                            
0020f17f  AddrMgrExtAddrValid                          
0020f12f  AddrMgrInit                                  
0020f4cd  AddrMgrInitNV                                
0020f441  AddrMgrIsFull                                
0020f1dd  AddrMgrNwkAddrLookup                         
0020f15b  AddrMgrReset                                 
0020f469  AddrMgrRestoreFromNV                         
0020f4ef  AddrMgrSetDefaultNV                          
0020f493  AddrMgrWriteNV                               
00210017  AddrMgrWriteNVRequest                        
20006568  ApsLinkKeyFrmCntr                            
0020be03  AssocAddNew                                  
0020bf1f  AssocChangeNwkAddr                           
0020c1d5  AssocCheckDupNeighbors                       
0020c25b  AssocChildAging                              
0020c30b  AssocChildTableManagement                    
0020c2ed  AssocChildTableUpdateTimeout                 
0020bdd5  AssocCount                                   
0020c19f  AssocFindDevice                              
0020c0f9  AssocGetNextChildNode                        
0020c0f5  AssocGetNextInactiveNode                     
0020bfe3  AssocGetWithAddress                          
0020bfe1  AssocGetWithExt                              
0020bfdb  AssocGetWithShort                            
0020bdc1  AssocInit                                    
0020c35f  AssocInitNV                                  
0020bf8f  AssocIsChild                                 
0020bfc7  AssocIsParent                                
0020bfab  AssocIsRFChild                               
0020c0ff  AssocMakeList                                
0020c761  AssocMakeListOfRfdChild                      
0020c16f  AssocMatchDeviceStatus                       
0020c03d  AssocRemove                                  
0020c0fd  AssocReset                                   
0020c573  AssocRestoreFromNV                           
0020c393  AssocSetDefaultNV                            
0020c6b9  AssocWriteNV                                 
20005900  AssociatedDevList                            
002289e5  BindInitNV                                   
0021fa55  BindRestoreFromNV                            
0022a871  BindSetDefaultNV                             
0022120d  BindWriteNV                                  
200064c8  BindingTable                                 
00226919  C$$EXIT                                      
002296b1  CCMAuthEncryptCheckResult                    
0021cae9  CCMAuthEncryptGetResult                      
00214295  CCMAuthEncryptStart                          
0022adc9  CCMInvAuthDecryptCheckResult                 
00219f4d  CCMInvAuthDecryptGetResult                   
00214079  CCMInvAuthDecryptStart                       
00217b2f  CGP_DataCnf                                  
00217a7b  CGP_DataReq                                  
0022ac53  CPUcpsid                                     
0022ac5f  CPUcpsie                                     
0022ab41  FlashCacheModeGet                            
00228625  FlashCacheModeSet                            
00229a9b  FlashMainPageErase                           
20007022  FrameCounterUpdated                          
2000690d  GPEP_Handle                                  
0020bb21  GPEP_findHandle                              
00225bbf  GPIODirModeSet                               
00226e71  GPIOGetIntNumber                             
002229e9  GPIOIntTypeSet                               
0022a649  GPIOIntWakeupDisable                         
0022a661  GPIOIntWakeupEnable                          
0022a679  GPIOPinIntClear                              
0022a30d  GPIOPinIntDisable                            
0022a32b  GPIOPinIntEnable                             
0022a035  GPIOPinIntStatus                             
0022a691  GPIOPinRead                                  
0022a057  GPIOPinTypeGPIOInput                         
0022a079  GPIOPinTypeGPIOOutput                        
0022a09b  GPIOPinTypeSSI                               
0022a1ab  GPIOPinWrite                                 
0022a349  GPIOPortIntRegister                          
00224805  GPIOPowIntClear                              
00222335  GPIOPowIntTypeSet                            
200068b4  GP_CheckAnnouncedDeviceGCB                   
00229ca5  GP_DataCnf                                   
20006698  GP_DataCnfGCB                                
0021ab25  GP_DataInd                                   
2000669c  GP_DataIndGCB                                
0020b515  GP_DataReq                                   
0021b40d  GP_SecReq                                    
200066a0  GP_SecReqGCB                                 
0020b66d  GP_SecRsp                                    
20006738  GP_aliasConflictAnnce                        
200068b0  GP_endpointInitGCB                           
2000672c  GP_expireDuplicateFilteringGCB               
20006734  GP_returnOperationalChannelGCB               
20006730  GP_stopCommissioningModeGCB                  
00223c75  GetBindingTableEntry                         
00228661  HalAdcCheckVdd                               
0022a1cd  HalAesInit                                   
0022a8f5  HalDriverInit                                
002232ed  HalKeyConfig                                 
0022a6a9  HalKeyInit                                   
00226ebd  HalKeyPoll                                   
0022a909  HalLcdInit                                   
0022a1ed  HalLcdWriteString                            
00226f09  HalLcd_HW_Clear                              
002264d5  HalLcd_HW_WriteLine                          
0021afa9  HalLedBlink                                  
0022a6c1  HalLedInit                                   
0021dc4d  HalLedOnOff                                  
0021dd1d  HalLedSet                                    
00217581  HalLedUpdate                                 
0022a6d9  Hal_Init                                     
20006927  Hal_KeyIntEnable                             
002214f1  Hal_ProcessEvent                             
00213c23  Hal_ProcessPoll                              
20006928  Hal_TaskID                                   
0021effd  IOCPadConfigSet                              
002159d5  IOCPinConfigPeriphInput                      
0021f435  IOCPinConfigPeriphOutput                     
00221581  InitBindingTable                             
0022869d  InitBoard                                    
0022ab51  IntAltMapEnable                              
00222b6d  IntDisable                                   
00222bed  IntEnable                                    
00229d65  IntMasterDisable                             
00229d89  IntMasterEnable                              
00226011  IntPendClear                                 
00226529  IntPrioritySet                               
00225c1d  IntRegister                                  
0022ad5d  MAC_CbackCheckPending                        
00210681  MAC_CbackEvent                               
0022ae39  MAC_CbackQueryRetransmit                     
00202e5f  MAC_Init                                     
002002d5  MAC_InitBeaconCoord                          
002009e1  MAC_InitBeaconDevice                         
002015bd  MAC_InitCoord                                
00202241  MAC_InitDevice                               
00201c89  MAC_McpsDataAlloc                            
00201c1d  MAC_McpsDataReq                              
00201675  MAC_McpsPurgeReq                             
002022d5  MAC_MlmeAssociateReq                         
00201661  MAC_MlmeAssociateRsp                         
00202d51  MAC_MlmeDisassociateReq                      
00224259  MAC_MlmeGetReq                               
0020166b  MAC_MlmeOrphanRsp                            
002022dd  MAC_MlmePollReq                              
00202d5b  MAC_MlmeResetReq                             
0020324d  MAC_MlmeScanReq                              
00214e8d  MAC_MlmeSetReq                               
00201685  MAC_MlmeStartReq                             
00202e57  MAC_MlmeSyncReq                              
00202ef9  MAC_PwrMode                                  
0020350d  MAC_PwrNextTimeout                           
00202eb7  MAC_PwrOffReq                                
00202ee5  MAC_PwrOnReq                                 
00202ea1  MAC_RandomByte                               
00202de3  MAC_ResumeReq                                
0022806d  MAC_SrcMatchAckAllPending                    
0021cf85  MAC_SrcMatchAddEntry                         
0022a91d  MAC_SrcMatchCheckAllPending                  
002291a9  MAC_SrcMatchCheckResult                      
00226f55  MAC_SrcMatchDeleteEntry                      
00226a15  MAC_SrcMatchEnable                           
00202e3b  MAC_YieldReq                                 
0022ad67  MT_GPDataCnf                                 
0022ad71  MT_GPDataInd                                 
0022ad7b  MT_GPSecReq                                  
0021708d  NIB_init                                     
00203a47  NLDE_BuildSrcRtgFrame                        
002047eb  NLDE_CheckForAddrConflict                    
00203be1  NLDE_CheckFrameSecurity                      
0020f51d  NLDE_DataCnf                                 
002037a3  NLDE_DataIndSend                             
0020f617  NLDE_DataIndication                          
0020c819  NLDE_DataReq                                 
0020c871  NLDE_DataReqAlloc                            
002035a1  NLDE_DataReqSend                             
00209245  NLDE_FrameDataLoad                           
00203cdb  NLDE_GetHandle                               
00203b99  NLDE_ParseFrameControl                       
00203a8b  NLDE_ParseMsg                                
00203c0d  NLDE_ParseMsg2                               
0020380f  NLDE_SendMsg                                 
002046cd  NLME_AddressConflictAssignNewStochastic      
20006f63  NLME_AssocPermission                         
002046fd  NLME_CheckNewAddrSet                         
002044af  NLME_CmdBcast                                
00204433  NLME_CmdCnf                                  
002044c1  NLME_CmdDataReqAlloc                         
0020f8df  NLME_ConcentratorIndication                  
0020f929  NLME_CoordStartPANIDConflictCB               
0020c7e9  NLME_CoordinatorInit                         
0020c801  NLME_DeviceJoiningInit                       
0020cb21  NLME_DirectJoinRequest                       
0020cb27  NLME_DirectJoinRequestWithAddr               
0020f8e3  NLME_EDScanConfirm                           
0020d0e1  NLME_EDScanRequest                           
00203cd3  NLME_GetCoordExtAddr                         
00203ccb  NLME_GetCoordShortAddr                       
002044e9  NLME_GetEnergyThreshold                      
00203cb1  NLME_GetExtAddr                              
002044e3  NLME_GetProtocolVersion                      
0020ca7f  NLME_GetRemainingPermitJoiningDuration       
0020cf5f  NLME_GetRequest                              
00203cc3  NLME_GetShortAddr                            
00203ec7  NLME_InitNV                                  
0020451d  NLME_IsAddressBroadcast                      
0020f843  NLME_JoinConfirm                             
0020f847  NLME_JoinIndication                          
0020cd4f  NLME_JoinRequest                             
00204379  NLME_LeaveCmdProcess                         
002042ed  NLME_LeaveCmdSend                            
0020f84b  NLME_LeaveCnf                                
0020f84f  NLME_LeaveInd                                
0020ce1b  NLME_LeaveReq                                
0020ceb5  NLME_LeaveRsp                                
0020f833  NLME_NetworkDiscoveryConfirm                 
0020c8b1  NLME_NetworkDiscoveryRequest                 
0020f837  NLME_NetworkFormationConfirm                 
0020c987  NLME_NetworkFormationRequest                 
0020f92d  NLME_NetworkStatusCB                         
0020c915  NLME_NwkDiscReq2                             
0020c969  NLME_NwkDiscTerm                             
002045a1  NLME_NwkStatusAddrConflictProcess            
0020cb9d  NLME_OrphanJoinRequest                       
0020cb91  NLME_OrphanStateSet                          
2000690a  NLME_PermitJoining                           
0020cac7  NLME_PermitJoiningEvent                      
0020caab  NLME_PermitJoiningRequest                    
0022add9  NLME_PermitJoiningTimeout                    
0020f899  NLME_PollConfirm                             
0020463b  NLME_ProcessAddressConflictLocal             
00204bd7  NLME_ProcessEndDevTimeoutReq                 
00204c9b  NLME_ProcessEndDevTimeoutRsp                 
002051c1  NLME_ProcessLinkStatus                       
002049ef  NLME_ProcessNetworkReport                    
0020486f  NLME_ProcessNetworkStatus                    
00204b3b  NLME_ProcessNetworkUpdate                    
0020cc23  NLME_ReJoinRequest                           
0020cc27  NLME_ReJoinRequestUnsecure                   
002058b9  NLME_ReadNwkKeyInfo                          
00204185  NLME_RejoinReqCmdProcess                     
00204261  NLME_RejoinRspCmdProcess                     
002041e1  NLME_RejoinRspSend                           
0020455b  NLME_RemoveChild                             
002047c1  NLME_ReportAddressConflict                   
0020cefb  NLME_ResetRequest                            
00203f63  NLME_RestoreFromNV                           
0020f8bf  NLME_RouteDiscoveryIndication                
00207655  NLME_RouteDiscoveryRequest                   
200068a4  NLME_ScanFields                              
00204b91  NLME_SendEndDevTimeoutReq                    
00204c41  NLME_SendEndDevTimeoutRsp                    
00205155  NLME_SendLinkStatus                          
00204961  NLME_SendNetworkReport                       
00204821  NLME_SendNetworkStatus                       
00204acd  NLME_SendNetworkUpdate                       
00204085  NLME_SetAssocFlags                           
00204501  NLME_SetBroadcastFilter                      
00203f2f  NLME_SetDefaultNV                            
002044f1  NLME_SetEnergyThreshold                      
00204f1d  NLME_SetLinkStatusTimer                      
00203e8b  NLME_SetPollRate                             
00203eb7  NLME_SetQueuedPollRate                       
0020d035  NLME_SetRequest                              
00203ebf  NLME_SetResponseRate                         
00204143  NLME_SetUpdateID                             
0020f83b  NLME_StartRouterConfirm                      
0020ce11  NLME_StartRouterRequest                      
0020f895  NLME_SyncIndication                          
0020cf2b  NLME_SyncRequest                             
00204ef3  NLME_UpdateLinkStatus                        
0020403b  NLME_UpdateNV                                
0020f83f  NLME_beaconNotifyInd                         
20006830  NWK_TaskID                                   
20006148  NwkDescList                                  
002057d3  NwkFreqAgilityInit                           
002058d9  NwkInitChildAging                            
00205aad  NwkNotMyChildListAdd                         
00205a25  NwkNotMyChildListAging                       
00205b1d  NwkNotMyChildListDelete                      
00205a01  NwkNotMyChildListInit                        
00205925  NwkNotMyChildSendLeave                       
00205fc7  NwkPollReq                                   
200070c4  OSAL_timeSeconds                             
00229aeb  OnBoard_KeyCallback                          
00226fa1  OnBoard_SendKeys                             
20006929  OnboardKeyIntEnable                          
0022ade1  Onboard_rand                                 
002080dd  RTG_AddSrcRtgEntry_Guaranteed                
00207ea9  RTG_AllocNewAddress                          
0020872d  RTG_BcastAdd                                 
00208699  RTG_BcastChk                                 
0020889d  RTG_BcastDel                                 
00208625  RTG_BcastTimerHandler                        
00208b11  RTG_CheckRtStatus                            
00207863  RTG_ChildGetNextHop                          
002088c9  RTG_DataReq                                  
00207f1d  RTG_DeAllocStochasticAddress                 
002077b9  RTG_GetNextHop                               
00208a9d  RTG_GetRtgEntry                              
00208179  RTG_GetRtgSrcEntry                           
00207ed3  RTG_GetStochastic                            
002075cd  RTG_Init                                     
0020776f  RTG_MTORouteReq                              
00208225  RTG_ProcessRrec                              
00207af7  RTG_ProcessRrep                              
0020794b  RTG_ProcessRreq                              
00208bc3  RTG_ProcessRtDiscBits                        
00208485  RTG_RemoveRtgEntry                           
0020787f  RTG_RouteMaintanence                         
00208405  RTG_RtgRecordInitiation                      
00208c49  RTG_SendBrokenRoute                          
00208995  RTG_SendNextEDMsg                            
00207ce5  RTG_SendRErr                                 
002083bf  RTG_SrcGetNextHop                            
00207d43  RTG_TimerEvent                               
00203cf7  RTG_UpdateNeighborEntry                      
002083c9  RTG_ValidateSrcRtg                           
00208cc7  RTG_initRtgTable                             
00208c93  RTG_nextHopIsBad                             
00229b15  RegisterForKeys                              
00225609  ResetISR                                     
UNDEFED   SHT$$INIT_ARRAY$$Base                        
UNDEFED   SHT$$INIT_ARRAY$$Limit                       
0022a0bd  SSIBusy                                      
0022a931  SSIClockSourceSet                            
00221a8b  SSIConfigSetExpClk                           
0022a0df  SSIDataGetNonBlocking                        
0022a5e1  SSIDataPut                                   
0022a887  SSIDisable                                   
0022a89d  SSIEnable                                    
0020ddb1  SSP_BuildAuxHdr                              
0020d9bd  SSP_BuildAuxHdr2                             
0020ddff  SSP_BuildNonce                               
00223ce9  SSP_CCM_Auth_Encrypt                         
00223bfd  SSP_CCM_InvAuth_Decrypt                      
0020dac9  SSP_GetMacTags                               
0020e06f  SSP_GetMicLen                                
0020de1d  SSP_GetMicLenProc                            
0020de2d  SSP_GetNwkKey                                
0020dba9  SSP_GetTrueRand                              
0020dc11  SSP_GetTrueRandAES                           
0020d931  SSP_Init                                     
00216815  SSP_KeyedHash                                
0020d943  SSP_MemCpyReverse                            
0020e05f  SSP_NwkSecurity                              
0020de7d  SSP_NwkSecurityProc                          
0020d95b  SSP_ParseAuxHdr                              
0020da01  SSP_Process                                  
0020dccb  SSP_ReadNwkActiveKey                         
0020dbf3  SSP_StoreRandomSeedNV                        
0020dd0f  SSP_SwitchNwkKey                             
0020dce1  SSP_UpdateNwkKey                             
0021fe45  SysCtrlClockGet                              
0021f7a5  SysCtrlClockSet                              
0022a43d  SysCtrlClockStartSetting                     
00225c79  SysCtrlDeepSleepSetting                      
0022a367  SysCtrlDelay                                 
0021fee9  SysCtrlIOClockGet                            
002296dd  SysCtrlPeripheralDeepSleepDisable            
00229709  SysCtrlPeripheralDisable                     
00229735  SysCtrlPeripheralEnable                      
00225cd5  SysCtrlPeripheralReset                       
00229761  SysCtrlPeripheralSleepDisable                
0022a459  SysCtrlPowIntClear                           
0022ac6d  SysCtrlReset                                 
00224871  SysCtrlRunSetting                            
00225d31  SysCtrlSleepSetting                          
00227b65  SysCtrlWakeupSetting                         
0022ab61  SysTickEnable                                
0022ab71  SysTickIntDisable                            
0022ab81  SysTickIntEnable                             
0022ad85  SysTickIntHandler                            
0022a6f1  SysTickPeriodSet                             
00229dad  SysTickSetup                                 
20005bf4  TCLinkKeyFrmCntr                             
00229dd1  UI_ActionBackFromAppMenu                     
00225d8d  UI_DeviceStateUpdated                        
0022383d  UI_Init                                      
00218f55  UI_MainStateMachine                          
0021e8b9  UI_UpdateComissioningStatus                  
0020a59d  UI_UpdateLcd                                 
00222c6d  ZDAppDetermineDeviceType                     
20006814  ZDAppNwkAddr                                 
2000692a  ZDAppTaskID                                  
002291d9  ZDApp_AnnounceNewAddress                     
20007024  ZDApp_AutoFindMode_epDesc                    
00229209  ZDApp_ChangeState                            
0022a945  ZDApp_CoordStartPANIDConflictCB              
00223d5d  ZDApp_DeviceAuthEvt                          
0022852d  ZDApp_InMsgCB                                
00227ba9  ZDApp_Init                                   
00228a1d  ZDApp_InitZdoCBFunc                          
2000692b  ZDApp_LeaveCtrl                              
00229239  ZDApp_LeaveCtrlInit                          
00229269  ZDApp_LeaveCtrlSet                           
0021ce9d  ZDApp_LeaveReset                             
0021ff8d  ZDApp_LeaveUpdate                            
002169cf  ZDApp_NVUpdate                               
0022978d  ZDApp_NetworkInit                            
00220911  ZDApp_NetworkStartEvt                        
20007030  ZDApp_NewDeviceList                          
0022a475  ZDApp_NwkStateUpdateCB                       
0021e2ad  ZDApp_ProcessMsgCBs                          
00223dd1  ZDApp_ProcessOSALMsg                         
0021bc65  ZDApp_ProcessSecEvent                        
0021e055  ZDApp_ProcessSecMsg                          
00226069  ZDApp_RegisterCBs                            
0022a491  ZDApp_ResetTimerCancel                       
00229b3d  ZDApp_ResetTimerStart                        
0021e975  ZDApp_RestoreNwkSecMaterial                  
00217a4f  ZDApp_SaveNetworkStateEvt                    
0021e5bd  ZDApp_SaveNwkKey                             
2000702c  ZDApp_SavedPollRate                          
002223b9  ZDApp_SecInit                                
00227415  ZDApp_SendMsg                                
00226fed  ZDApp_SendParentAnnce                        
002297b9  ZDApp_SetParentAnnceTimer                    
00229299  ZDApp_StartJoiningCycle                      
002292c9  ZDApp_StopJoiningCycle                       
00220cb9  ZDApp_StoreNwkSecMaterial                    
200070a8  ZDApp_epDesc                                 
00214ca1  ZDApp_event_loop                             
0022ac79  ZDConfig_InitDescriptors                     
0021e371  ZDConfig_UpdateNodeDescriptor                
002274f5  ZDConfig_UpdatePowerDescriptor               
00212261  ZDMatchSendState                             
00227bed  ZDNwkMgr_EDScanConfirmCB                     
002248dd  ZDNwkMgr_Init                                
2000681e  ZDNwkMgr_MgmtNwkUpdateNotifyAddr             
20006fc5  ZDNwkMgr_MgmtNwkUpdateNotifyTransSeq         
200067e4  ZDNwkMgr_MgmtNwkUpdateReq                    
2000692c  ZDNwkMgr_NewChannel                          
20006fc8  ZDNwkMgr_NumUpdateNotifySent                 
00228ea9  ZDNwkMgr_ProcessDataConfirm                  
00229df5  ZDNwkMgr_ProcessServerDiscRsp                
00228a55  ZDNwkMgr_ReportChannelInterference           
00229e19  ZDNwkMgr_SetNwkManagerAddr                   
20006fc4  ZDNwkMgr_TaskID                              
20006912  ZDNwkMgr_TotalTransmissions                  
20006914  ZDNwkMgr_TxFailures                          
20006fc6  ZDNwkMgr_UpdateNotifyTimer                   
20006fc9  ZDNwkMgr_WaitingForNotifyConfirm             
0021a081  ZDNwkMgr_event_loop                          
002198e5  ZDOInitDeviceEx                              
00224ebd  ZDO_AddrChangeIndicationCB                   
00224729  ZDO_AnyClusterMatches                        
002286d9  ZDO_ConcentratorIndicationCB                 
2000678c  ZDO_Config_Node_Descriptor                   
200068dc  ZDO_Config_Power_Descriptor                  
0022657d  ZDO_ConvertOTAClusters                       
00229e3d  ZDO_Init                                     
00222ced  ZDO_JoinConfirmCB                            
0021e11d  ZDO_JoinIndicationCB                         
00227039  ZDO_LeaveCnf                                 
0021debd  ZDO_LeaveInd                                 
0022adf1  ZDO_ManytoOneFailureIndicationCB             
00213581  ZDO_MatchEndDeviceBind                       
00228715  ZDO_NetworkDiscoveryConfirmCB                
0021b521  ZDO_NetworkFormationConfirmCB                
00229e61  ZDO_NetworkStatusCB                          
0021be5d  ZDO_ParseAddrRsp                             
00221b17  ZDO_ParseBindUnbindReq                       
00227c31  ZDO_ParseDeviceAnnce                         
0021c349  ZDO_ParseEndDeviceBindReq                    
00223749  ZDO_ParseMgmtNwkUpdateReq                    
002209ad  ZDO_ParseParentAnnce                         
0022907d  ZDO_ParseServerDiscRsp                       
002190bd  ZDO_ParseSimpleDescBuf                       
0022a4ad  ZDO_PermitJoinCB                             
0022ac85  ZDO_PollConfirmCB                            
00222005  ZDO_ProcessActiveEPReq                       
0021b741  ZDO_ProcessBindUnbindReq                     
002162d9  ZDO_ProcessDeviceAnnce                       
00210351  ZDO_ProcessMatchDescReq                      
0021bf59  ZDO_ProcessMgmtBindReq                       
00221049  ZDO_ProcessMgmtLeaveReq                      
00210c99  ZDO_ProcessMgmtLqiReq                        
002238b5  ZDO_ProcessMgmtPermitJoinReq                 
00223e45  ZDO_ProcessNodeDescReq                       
0022ad8f  ZDO_ProcessNodeDescRsp                       
00216111  ZDO_ProcessParentAnnce                       
0021f6f5  ZDO_ProcessParentAnnceRsp                    
00223eb9  ZDO_ProcessPowerDescReq                      
0021ec65  ZDO_ProcessSimpleDescReq                     
0022ad99  ZDO_ProcessSimpleDescRsp                     
00221ba5  ZDO_RegisterForZDOMsg                        
002297e5  ZDO_RegisterForZdoCB                         
0021f851  ZDO_SendMsgCBs                               
00228751  ZDO_SrcRtgIndCB                              
0021f4e5  ZDO_StartDevice                              
00228a8d  ZDO_StartRouterConfirmCB                     
0022ac0d  ZDO_SyncIndicationCB                         
00229811  ZDO_UpdateAddrManager                        
00224f25  ZDO_UpdateNwkStatus                          
20006868  ZDO_UseExtendedPANID                         
00216d35  ZDO_beaconNotifyIndCB                        
0022bb62  ZDP_AF_ENDPOINT                              
0021c055  ZDP_BindUnbindReq                            
00222d6d  ZDP_DeviceAnnce                              
0021e67d  ZDP_EPRsp                                    
00225861  ZDP_GenericRsp                               
0022243d  ZDP_IEEEAddrReq                              
0021e435  ZDP_IncomingData                             
00218221  ZDP_MgmtBindRsp                              
0021881d  ZDP_MgmtLqiRsp                               
0021cbd9  ZDP_MgmtNwkUpdateNotify                      
002212a1  ZDP_MgmtPermitJoinReq                        
0021a8d5  ZDP_NodeDescMsg                              
00221cbd  ZDP_NwkAddrReq                               
0021a2e9  ZDP_ParentAnnce                              
00220d51  ZDP_PowerDescMsg                             
00223369  ZDP_SendData                                 
00215ba5  ZDP_SimpleDescMsg                            
00227085  ZDP_SimpleDescReq                            
200070c8  ZDP_TransID                                  
200070d0  ZDP_TxOptions                                
00226a65  ZDSecMgrAPSRemove                            
002280ad  ZDSecMgrAddrClear                            
002265d1  ZDSecMgrAddrStore                            
002292f9  ZDSecMgrAppConfKeyReq                        
20007094  ZDSecMgrAppKeyType                           
00224f8d  ZDSecMgrApsLinkKeyInit                       
0022a709  ZDSecMgrAssocDeviceAuth                      
0022ac1b  ZDSecMgrAuthenticationCheck                  
0022ab91  ZDSecMgrConfig                               
002205f1  ZDSecMgrDeviceJoin                           
0021dded  ZDSecMgrDeviceJoinDirect                     
0022a8b3  ZDSecMgrDeviceNew                            
00220691  ZDSecMgrDeviceRemove                         
0022a101  ZDSecMgrDeviceRemoveByExtAddr                
00229b65  ZDSecMgrDeviceValidate                       
00229e85  ZDSecMgrDeviceValidateRM                     
20007090  ZDSecMgrEntries                              
00227585  ZDSecMgrEntryFree                            
00224339  ZDSecMgrEntryLookupAMI                       
00229329  ZDSecMgrEntryLookupExt                       
002275cd  ZDSecMgrExtAddrLookup                        
002204ad  ZDSecMgrGenerateKeyFromSeed                  
002262d1  ZDSecMgrGenerateRndKey                       
002280ed  ZDSecMgrGenerateSeed                         
00229ea9  ZDSecMgrInit                                 
00227615  ZDSecMgrInitNV                               
00229b8d  ZDSecMgrInitNVKeyTables                      
0021ed1d  ZDSecMgrNewDeviceEvent                       
0021b0c5  ZDSecMgrNwkKeyInit                           
0022812d  ZDSecMgrPermitJoining                        
2000692d  ZDSecMgrPermitJoiningEnabled                 
2000692e  ZDSecMgrPermitJoiningTimed                   
0022a20d  ZDSecMgrPermitJoiningTimeout                 
0021d599  ZDSecMgrReadKeyFromNv                        
0021ea31  ZDSecMgrSaveTCLinkKey                        
0021f8fd  ZDSecMgrSendNwkKey                           
0021f0b1  ZDSecMgrSetDefaultNV                         
2000708c  ZDSecMgrTCAuthenticated                      
0021e73d  ZDSecMgrUpdateDeviceInd                      
0022878d  ZDSecMgrUpdateTCAddress                      
0022ac91  ZDSecMgrVerifyKeyInd                         
0022ac9d  ZDiagsUpdateStats                            
0022a959  ZMacAssociateReq                             
0022aac1  ZMacAssociateRsp                             
0022326d  ZMacDataReqSec                               
0022983d  ZMacGetReq                                   
00229ecd  ZMacInit                                     
0022a96d  ZMacPollReq                                  
00226625  ZMacReset                                    
00221d49  ZMacScanReq                                  
002260c1  ZMacSendNoData                               
00229bb5  ZMacSetReq                                   
0022aad3  ZMacSrcMatchAckAllPending                    
0022a981  ZMacSrcMatchAddEntry                         
0022a995  ZMacSrcMatchDeleteEntry                      
0022ada3  ZMacSrcMatchEnable                           
002299f3  ZMacStartReq                                 
20007198  ZMac_ScanBuf                                 
200060d4  _NIB                                         
200068e0  _ScanChannels                                
20008000  __STACK_END                                  
00000100  __STACK_SIZE                                 
20008000  __STACK_TOP                                  
0022c1c0  __TI_CINIT_Base                              
0022c1d8  __TI_CINIT_Limit                             
0022c1a4  __TI_Handler_Table_Base                      
0022c1b0  __TI_Handler_Table_Limit                     
002244f9  __TI_auto_init                               
20007128  __TI_cleanup_ptr                             
002251fd  __TI_decompress_lzss                         
0022ac29  __TI_decompress_none                         
2000712c  __TI_dtors_ptr                               
20007130  __TI_enable_exit_profile_output              
ffffffff  __TI_pprof_out_hndl                          
ffffffff  __TI_prof_data_size                          
ffffffff  __TI_prof_data_start                         
0022bfd8  __TI_static_base__                           
0022acd9  __TI_zero_init                               
002237c3  __aeabi_memclr                               
002237c3  __aeabi_memclr4                              
002237c3  __aeabi_memclr8                              
00220b81  __aeabi_memcpy                               
00220b81  __aeabi_memcpy4                              
00220b81  __aeabi_memcpy8                              
002237c5  __aeabi_memset                               
002237c5  __aeabi_memset4                              
002237c5  __aeabi_memset8                              
ffffffff  __binit__                                    
ffffffff  __c_args__                                   
0027ffd4  __cca                                        
0021d307  __mpu_init                                   
20007f00  __stack                                      
0022a829  _args_main                                   
002283ad  _c_int00                                     
20007158  _lock                                        
0022aa93  _nop                                         
0022aa8b  _register_lock                               
0022aa85  _register_unlock                             
20006ea6  _savedRejoinRspAddr                          
0021effb  _system_post_cinit                           
0022ae3d  _system_pre_init                             
2000692f  _tmpRejoinState                              
2000715c  _unlock                                      
20006870  aExtendedAddress                             
0022691d  abort                                        
002290af  afAPSF_ConfigGet                             
00229359  afCopyAddress                                
00226679  afDataConfirm                                
002290e1  afDataReqMTU                                 
002270d1  afEndPoints                                  
0022a385  afFindEndPointDesc                           
002266cd  afFindSimpleDesc                             
00216b85  afIncomingData                               
00228b35  afNumEndPoints                               
00224ff5  afReflectError                               
00229ccb  afRegister                                   
00222ded  afRegisterExtended                           
200067f0  aliasConflictAnnce                           
20007144  apsChannelMask                               
00213d25  apsGenerateAck                               
200068a8  apsGroupTable                                
00213e0d  apsProcessAck                                
00213339  aps_AddGroup                                 
00213489  aps_CountAllGroups                           
0021346f  aps_CountGroups                              
002133df  aps_FindAllGroupsForEndpoint                 
00213395  aps_FindGroup                                
002133b1  aps_FindGroupForEndpoint                     
0021349b  aps_GroupsInitNV                             
00213531  aps_GroupsRestoreFromNV                      
002134bf  aps_GroupsSetDefaultNV                       
002134d9  aps_GroupsWriteNV                            
0021343b  aps_RemoveAllGroup                           
00213403  aps_RemoveGroup                              
20006890  apsfProcessAck                               
20006894  apsfSendFragmented                           
20006898  apsfSendOsalMsg                              
2000658c  bcastHoldAckMask                             
200067fc  bcastHoldHandle                              
20006404  bcastTable                                   
20007034  bdbAttributes                                
200068e4  bdbCommissioningProcedureState               
20007154  bdbIndentifyActiveEndpoint                   
0021fd9d  bdb_AddRespondentNode                        
00229ef1  bdb_CreateRespondentList                     
20006ef0  bdb_CurrEpDescriptorList                     
20006ee8  bdb_FB_InitiatorCurrentCyclesNumber          
00221dd5  bdb_FindIfAppCluster                         
200066d0  bdb_FindingBindingTargetSimpleDesc           
0022a9a9  bdb_GenerateInstallCodeCRC                   
00226119  bdb_GetFBInitiatorStatus                     
20006eec  bdb_HeadEpDescriptorList                     
00225de9  bdb_Init                                     
00229869  bdb_NotifyCommissioningModeStart             
0021edd5  bdb_ProcessIEEEAddrRsp                       
0021ac49  bdb_ProcessRespondentList                    
0021fafd  bdb_ProcessSimpleDesc                        
0022a9bd  bdb_RegisterBindNotificationCB               
0022a9d1  bdb_RegisterCommissioningStatusCB            
0022a9e5  bdb_RegisterIdentifyTimeChangeCB             
00228b6d  bdb_RegisterSimpleDescriptor                 
002243a9  bdb_SendIdentifyQuery                        
00224949  bdb_SendMsg                                  
00215d75  bdb_StartCommissioning                       
0021b1dd  bdb_TCAddJoiningDevice                       
00221611  bdb_TCjoiningDeviceComplete                  
20006930  bdb_TaskID                                   
00222545  bdb_ZclIdentifyCmdInd                        
0022505d  bdb_ZclIdentifyQueryCmdInd                   
20006f02  bdb_ZclTransactionSequenceNumber             
0022bb32  bdb_ZclType1Clusters                         
0022b598  bdb_ZclType2Clusters                         
0022566d  bdb_addInstallCode                           
00229389  bdb_calculateCCITT_CRC                       
002146a9  bdb_checkMatchingEndpoints                   
0021d22b  bdb_crcBitByBitFast                          
002233e5  bdb_crcInit                                  
00224d15  bdb_crcReflect                               
0022acb5  bdb_doTrustCenterRequireKeyExchange          
00211809  bdb_event_loop                               
0022a4c9  bdb_exitFindingBindingWStatus                
0022765d  bdb_findRespondentNode                       
002293b9  bdb_getRespondentRetry                       
0022a9f9  bdb_getZCLFrameCounter                       
20006f00  bdb_initialization                           
0022acc1  bdb_isDeviceNonFactoryNew                    
00227c75  bdb_nwkFormationAttempt                      
002186a3  bdb_parentLost                               
00211561  bdb_reportCommissioningState                 
0022aae5  bdb_resetLocalAction                         
00229bdd  bdb_setChannel                               
00221eed  bdb_setEpDescListToActiveEndpoint            
0022aaf7  bdb_setFN                                    
002276a5  bdb_setNodeIsOnANetwork                      
0022accd  bdb_setNodeJoinLinkKeyType                   
0021d309  bdb_zclFindingBindingEpType                  
0022856b  bdb_zclRespondentListClean                   
0022816d  bindAddClusterIdToList                       
00212e91  bindAddEntry                                 
00222a6b  bindAddrIndexGet                             
00223fa1  bindAddrMgrLocalLoad                         
00220a49  bindAddressClear                             
002225c9  bindFind                                     
00226721  bindFindEmpty                                
0021b84d  bindFindExisting                             
0022745f  bindIsClusterIDinList                        
002250c5  bindNumOfEntries                             
0022392d  bindNumReflections                           
0022145d  bindRemoveClusterIdFromList                  
0021d9d1  bindRemoveDev                                
0022a721  bindRemoveEntry                              
002281ad  bindingAddrMgsHelperConvert                  
00229cf1  bindingAddrMgsHelperConvertShort             
002287c9  bindingAddrMgsHelperFind                     
ffffffff  binit                                        
0022a22d  bsp3V3DomainEnable                           
00220de9  bspKeyInit                                   
00228ba5  bspKeyIntEnable                              
00224015  bspKeyIntRegister                            
00220e81  bspKeyPushedEx                               
002293e9  bspSpiClockSpeedSet                          
0022512d  bspSpiInit                                   
00217b35  cGP_processMCPSDataInd                       
0020df91  ccmStar                                      
200070c9  childIndex                                   
20007021  continueJoining                              
00227299  copy_in                                      
0020b4cf  dGP_DataCnf                                  
0020b2d1  dGP_DataInd                                  
2000690c  dGP_StubHandle                               
0020bb0d  dGP_findHandle                               
0022be24  defaultKey                                   
0022be34  defaultTCLinkKey                             
2000702a  devStartMode                                 
20007028  devState                                     
20006690  dgp_DataIndList                              
200068c4  distributedFrameCounter                      
200068e8  epList                                       
00226925  exit                                         
00228edd  flashErasePage                               
00215f45  flashWrite                                   
0022bb30  gAPS_MAX_GROUPS                              
0022bb2e  gBIND_REC_SIZE                               
0022bb1f  gDEFAULT_ROUTE_REQUEST_RADIUS                
0022bb20  gDEF_NWK_RADIUS                              
0022bb17  gGOOD_LINK_COST                              
0022bb16  gLINK_DOWN_TRIGGER                           
0022bb22  gLINK_STATUS_JITTER_MASK                     
0022bb19  gMAX_BCAST                                   
0022bb2d  gMAX_BINDING_CLUSTER_IDS                     
0022bb15  gMAX_BROADCAST_QUEUED                        
0022bb13  gMAX_NEIGHBOR_ENTRIES                        
0022bb24  gMAX_NOT_MYCHILD_DEVICES                     
0022bb28  gMAX_NWK_FRAMECOUNTER_CHANGES                
0022bb0a  gMAX_NWK_SEC_MATERIAL_TABLE_ENTRIES          
0022bb18  gMAX_PASSIVE_ACK_CNT                         
0022bb12  gMAX_RREQ_ENTRIES                            
0022bb10  gMAX_RTG_ENTRIES                             
0022bb11  gMAX_RTG_SRC_ENTRIES                         
0022bb14  gMAX_SOURCE_ROUTE                            
200071ac  gMIN_TREE_LQI                                
0022bb1e  gMTO_ROUTE_EXPIRY_TIME                       
0022bb1c  gMTO_RREQ_LIMIT_TIME                         
0022bb1b  gNWK_CONFLICTED_ADDR_EXPIRY_TIME             
0022bb09  gNWK_FREQ_AGILITY_ALL_MAC_ERRS               
0022bb06  gNWK_INDIRECT_CNT_RTG_TMR                    
0022bb08  gNWK_INDIRECT_MSG_MAX_ALL                    
0022bb07  gNWK_INDIRECT_MSG_MAX_PER                    
0022bb2c  gNWK_MAX_BINDING_ENTRIES                     
0022bb04  gNWK_MAX_DATABUFS_CONFIRMED                  
0022bb03  gNWK_MAX_DATABUFS_SCHEDULED                  
0022bb05  gNWK_MAX_DATABUFS_TOTAL                      
0022bb02  gNWK_MAX_DATABUFS_WAITING                    
0022bb00  gNWK_MAX_DEVICE_LIST                         
0022bb01  gNWK_MAX_SLEEPING_END_DEVICES                
0022bb0e  gNWK_MIN_ENDDEVICE_CHILDREN                  
0022bb0c  gNWK_MIN_ROUTER_CHILDREN                     
0022bb1a  gNWK_TREE_ALLOCATE_ROUTERADDR_FOR_ENDDEVICE  
0022befe  gZDSECMGR_TC_ATTEMPT_DEFAULT_KEY             
0022befc  gZDSECMGR_TC_DEVICE_IC_MAX                   
0022befa  gZDSECMGR_TC_DEVICE_MAX                      
20007194  g_MasterInterruptDepth                       
20004000  g_pfnRAMVectors                              
00200000  g_pfnVectors                                 
200071a9  g_ui8CurrentAESOp                            
20006694  gpTxQueueList                                
0022208d  gp_AddCmdPayloadMsgNode                      
0022553d  gp_AddNotificationMsgNode                    
0021a549  gp_CheckAnnouncedDevice                      
00227a4d  gp_CmdPayloadMsgClean                        
00229895  gp_CreateCmdPayloadMsgList                   
00229f39  gp_CreateNotificationMsgList                 
0020ba7f  gp_DataIndAppendToList                       
0020ba9b  gp_DataIndGet                                
200068ec  gp_DataIndList                               
0020b735  gp_DataIndReleaseFromList                    
0020bab3  gp_FreeGpTxQueue                             
0020bad1  gp_GetHandle                                 
0022ace5  gp_GetHeadNotificationMsg                    
0022adf9  gp_GetPHeadCmdPayload                        
0022ae01  gp_GetPHeadNotification                      
0020bb25  gp_Init                                      
00226ab5  gp_NotificationMsgClean                      
00211fd9  gp_PairingUpdateProxyTlb                     
002241e5  gp_PopulateField                             
0022219d  gp_ProxyTblInit                              
0022a739  gp_RegisterCommissioningModeCB               
0022a751  gp_RegisterGPChangeChannelReqCB              
0022a769  gp_RegisterGPChangeChannelReqForBDBCB        
00229f5d  gp_ResetProxyBasicTblEntry                   
00217a51  gp_SendScheduledMacDataReq                   
2000668c  gp_TaskID                                    
00213e51  gp_UpdateProxyTlb                            
20006f3a  gp_commissionerAddress                       
20006f34  gp_commissioningOptions                      
20006f36  gp_commissioningUnicastAddress               
00227cb9  gp_endpointInit                              
0020bb31  gp_event_loop                                
00226b05  gp_expireDuplicateFiltering                  
0021e1e5  gp_getProxyTableByGpId                       
002258c1  gp_getProxyTableByIndex                      
200068ac  gp_macReq                                    
002276ed  gp_returnOperationalChannel                  
0022711d  gp_stopCommissioningMode                     
20006f3c  gp_tempLogicalChannel                        
00219cc3  halAssertHandler                             
0022adad  halSleepTimerIsr                             
002222ad  hal_key_int_keys                             
00223559  hal_key_keys                                 
0021afa7  initFlash                                    
00228f11  interrupt_keybd                              
00218b09  ioPinIntRegister                             
0021ad69  lcdBufferPrintString                         
2000694c  lcdDefaultBuffer                             
00229f81  lcdGetStringLength                           
002267c9  lcdGotoXY                                    
00225921  lcdInit                                      
00226b55  lcdSendBuffer                                
00227d41  lcdSendCommand                               
00227d85  lcdSendData                                  
0022ae40  lcd_alphabet                                 
20006dd8  macActionSet                                 
002016e1  macAllocTxBuffer                             
00201e49  macApiAssociateReq                           
00201231  macApiAssociateRsp                           
00202ac9  macApiBadState                               
00200381  macApiBeaconStartReq                         
00201bb3  macApiDataReq                                
00202bb5  macApiDisassociateReq                        
00201295  macApiOrphanRsp                              
00202acd  macApiPending                                
00202079  macApiPollReq                                
002012f5  macApiPurgeReq                               
00202eb5  macApiPwrOnReq                               
00202f25  macApiScanReq                                
00201369  macApiStartReq                               
00200b25  macApiSyncReq                                
00202ab7  macApiUnsupported                            
00201ecd  macAssocDataReq                              
00201f0d  macAssocDataReqComplete                      
00202021  macAssocDataRxInd                            
00201fdd  macAssocFailed                               
00201fb9  macAssocFrameResponseTimeout                 
00202015  macAssocRxDisassoc                           
00201d71  macAssociateCnf                              
00202270  macAssociatingSt                             
00200a79  macAutoPoll                                  
0021c9f7  macBackoffTimerCancelTrigger                 
00227dc9  macBackoffTimerCapture                       
0022ae09  macBackoffTimerCompareIsr                    
00227e0d  macBackoffTimerCount                         
0022acf1  macBackoffTimerGetTrigger                    
002281ed  macBackoffTimerInit                          
0022acfd  macBackoffTimerPeriodIsr                     
0021f219  macBackoffTimerRealign                       
0022a24d  macBackoffTimerReset                         
0020335d  macBackoffTimerRolloverCallback              
00227169  macBackoffTimerSetCount                      
002277c5  macBackoffTimerSetRollover                   
00224089  macBackoffTimerSetTrigger                    
002032c3  macBackoffTimerTriggerCallback               
20006d4c  macBeacon                                    
00200547  macBeaconBattLifeCallback                    
002001c9  macBeaconCheckSched                          
00200329  macBeaconCheckStartTime                      
0020022d  macBeaconCheckTxTime                         
0020068f  macBeaconClearIndirect                       
20006d90  macBeaconCoord                               
200061b8  macBeaconDevice                              
00200101  macBeaconInit                                
20006d70  macBeaconMargin                              
002003c7  macBeaconPeriodCallback                      
00200441  macBeaconPrepareCallback                     
002001ed  macBeaconRequeue                             
0020011f  macBeaconReset                               
00200659  macBeaconSchedRequested                      
00200303  macBeaconSetPrepareTime                      
00200135  macBeaconSetSched                            
002005e7  macBeaconSetupBroadcast                      
00200289  macBeaconSetupCap                            
002004c9  macBeaconStartContinue                       
00200bfd  macBeaconStartFrameResponseTimer             
002006cb  macBeaconStopTrack                           
0020072f  macBeaconSyncLoss                            
002003ef  macBeaconTxCallback                          
002006c3  macBroadcastPendCallback                     
00201dbd  macBuildAssociateReq                         
00200d19  macBuildAssociateRsp                         
00200edb  macBuildBeacon                               
00202a05  macBuildBeaconNotifyInd                      
00202965  macBuildCommonReq                            
002018a1  macBuildDataFrame                            
002029bb  macBuildDisassociateReq                      
002027ff  macBuildHeader                               
00200e1d  macBuildPendAddr                             
00200d87  macBuildRealign                              
0020240c  macCbackEventTbl                             
00202389  macCbackForEvent                             
0022bee4  macCfg                                       
00200a2d  macCheckPendAddr                             
002018dd  macCheckSched                                
20006fe0  macChipVersion                               
00202af5  macCommStatusInd                             
00202d37  macConflictSyncLossInd                       
2000644c  macCoord                                     
002027a1  macCoordAddrCmp                              
002027c5  macCoordDestAddrCmp                          
00200c89  macCoordReset                                
00228f45  macCspForceTxDoneIfPending                   
0022a26d  macCspTxCancelAckTimeoutCallback             
0022822d  macCspTxGoCsma                               
0021eaed  macCspTxGoSlotted                            
0022a799  macCspTxIntIsr                               
00225265  macCspTxPrepCsmaSlotted                      
00224a21  macCspTxPrepCsmaUnslotted                    
00228841  macCspTxPrepSlotted                          
0021b2f5  macCspTxRequestAckTimeoutCallback            
0022826d  macCspTxStopIsr                              
20006278  macData                                      
200062c8  macDataBeaconRequeue                         
200062c0  macDataCheckSched                            
200062c4  macDataCheckTxTime                           
20006e48  macDataRequeueIndirect                       
0020168d  macDataReset                                 
200062b4  macDataRxBeaconCritical                      
00201c15  macDataRxInd                                 
002017a1  macDataRxMemAlloc                            
002017bd  macDataRxMemFree                             
00201bb1  macDataSend                                  
200062bc  macDataSetSched                              
200062b8  macDataTxBeaconComplete                      
002018ff  macDataTxComplete                            
2000629c  macDataTxDelay                               
00201ca5  macDataTxDelayCallback                       
00201b3b  macDataTxEnqueue                             
20006e44  macDataTxIndirect                            
00201a55  macDataTxSend                                
00201889  macDataTxTimeAvailable                       
00202abb  macDefaultAction                             
00202723  macDestAddrCmp                               
0020275b  macDestSAddrCmp                              
200061ec  macDevice                                    
00201cd9  macDeviceReset                               
00202c15  macDisassocComplete                          
00202559  macEventLoop                                 
00202449  macExecute                                   
00201721  macFrameDuration                             
0022ad09  macGetBackOffTimerRollover                   
002026ef  macGetCoordAddress                           
0020270d  macGetMyAddrMode                             
0022bf0c  macIdleSt                                    
002006f7  macIncomingNonSlottedTx                      
00201089  macIndirectExpire                            
00200fb5  macIndirectMark                              
00201199  macIndirectRequeueFrame                      
0020100d  macIndirectSend                              
00201145  macIndirectTxFrame                           
0022ad15  macLowLevelDiags                             
0022a4e5  macLowLevelInit                              
00228f79  macLowLevelReset                             
0022ae11  macLowLevelResume                            
002256d1  macLowLevelYield                             
20006dcc  macMain                                      
0020264f  macMainReserve                               
002022e3  macMainReset                                 
002271b5  macMcuAccumulatedOverFlow                    
00211d49  macMcuInit                                   
00225981  macMcuOverflowCapture                        
002252cd  macMcuOverflowCount                          
002207d1  macMcuOverflowSetCompare                     
002235d5  macMcuOverflowSetCount                       
00220031  macMcuOverflowSetPeriod                      
0022a28d  macMcuRandomByte                             
002282ad  macMcuRandomWord                             
0022a501  macMcuRecordMaxRssiStart                     
0022a51d  macMcuRecordMaxRssiStop                      
00224a8d  macMcuRfErrIsr                               
002200d5  macMcuRfIsr                                  
00224af9  macMcuTimer2Isr                              
00226171  macMcuTimerCapture                           
0022681d  macMcuTimerForceDelay                        
002282ed  macMemReadRam                                
00228bdd  macMemReadRxFifo                             
0022887d  macMemWriteRam                               
00228c15  macMemWriteTxFifo                            
20006d6c  macMgmt                                      
20006370  macMgmtAction1                               
200063a4  macMgmtAction2                               
0020269d  macMgmtReset                                 
00202ab5  macNoAction                                  
0020062b  macOutgoingNonSlottedTx                      
0020223d  macPanConflictComplete                       
2000636c  macPanCoordinator                            
00200e01  macPendAddrLen                               
20006931  macPhyChannel                                
20006932  macPhyTxPower                                
2000614c  macPib                                       
00227fe7  macPibIndex                                  
00229419  macPibReset                                  
00201da5  macPollCnf                                   
002020cd  macPollDataReqComplete                       
00202129  macPollDataRxInd                             
00202181  macPollFrameResponseTimeout                  
002021bd  macPollRxAssocRsp                            
002021a5  macPollRxDisassoc                            
00202324  macPollingSt                                 
2000636d  macPwr                                       
00202ea5  macPwrReset                                  
00202f09  macPwrVote                                   
0022aa35  macRadioComputeLQI                           
0022bb90  macRadioDefsTxPwrBare                        
0022ae19  macRadioEnergyDetectStart                    
0022a3c1  macRadioEnergyDetectStop                     
002298ed  macRadioInit                                 
0022ae21  macRadioRandomByte                           
0022ad21  macRadioReset                                
00225ea1  macRadioSetChannel                           
0022aa49  macRadioSetIEEEAddr                          
00229919  macRadioSetPanCoordinator                    
00229945  macRadioSetPanID                             
00229971  macRadioSetShortAddr                         
00221f79  macRadioSetTxPower                           
00224489  macRadioStartScan                            
00229449  macRadioStopScan                             
0022abb1  macRadioTurnOffPower                         
00222225  macRadioTurnOnPower                          
00222eed  macRadioUpdateChannel                        
00225335  macRadioUpdateTxPower                        
20006e28  macReset                                     
00229c05  macRxAckTxDoneCallback                       
20006933  macRxActive                                  
00201f41  macRxAssocRsp                                
002011f1  macRxAssociateReq                            
00202cb1  macRxBeacon                                  
002008d9  macRxBeaconCritical                          
002014f5  macRxBeaconReq                               
0020177b  macRxCheckMACPendingCallback                 
00201763  macRxCheckPendingCallback                    
002017c7  macRxCompleteCallback                        
002021d9  macRxCoordRealign                            
00201529  macRxDataReq                                 
00226ba5  macRxDisable                                 
00202c55  macRxDisassoc                                
00227201  macRxEnable                                  
20006934  macRxEnableFlags                             
0022aa5d  macRxFifoOverflowIsr                         
20006935  macRxFilter                                  
00229fa5  macRxHaltCleanup                             
002261c9  macRxHardDisable                             
002259e1  macRxInit                                    
002226d1  macRxOff                                     
00226221  macRxOffRequest                              
00227e51  macRxOn                                      
20006936  macRxOnFlag                                  
0022a7b1  macRxOnOffInit                               
00228c4d  macRxOnRequest                               
00201261  macRxOrphan                                  
20006937  macRxOutgoingAckFlag                         
002015a9  macRxPanConflict                             
00226bf5  macRxPromiscuousMode                         
00226871  macRxRadioPowerUpInit                        
0022780d  macRxSoftEnable                              
00228c85  macRxThresholdIsr                            
0022a7c9  macRxTxReset                                 
2000638c  macScanAction                                
00202f0b  macScanCnfInit                               
002031f9  macScanComplete                              
00203231  macScanFailedInProgress                      
00202fe1  macScanNextChan                              
002030d5  macScanRxBeacon                              
00203171  macScanRxCoordRealign                        
00203091  macScanStartTimer                            
0022bf70  macScanningSt                                
00202aad  macSecCpy                                    
002024d7  macSendDataMsg                               
00202499  macSendMsg                                   
00202524  macSendMsgBufSize                            
00202530  macSendMsgDataSize                           
00202319  macSetEvent                                  
002018f5  macSetSched                                  
0021eba9  macSleep                                     
200071ab  macSleepState                                
00225735  macSleepWakeUp                               
200070a7  macSrcMatchIsAckAllPending                   
200070a6  macSrcMatchIsEnabled                         
00200493  macStartBeaconPrepareCallback                
002013d9  macStartBegin                                
00200c49  macStartBroadcastPendTimer                   
002014d1  macStartComplete                             
002014b1  macStartContinue                             
00201e15  macStartFrameResponseTimer                   
00201e01  macStartResponseTimer                        
00201441  macStartSetParams                            
002015fc  macStartingSt                                
00202419  macStateIdle                                 
00202425  macStateIdleOrPolling                        
00202439  macStateScanning                             
20006dfc  macStateTbl                                  
0020078b  macSyncTimeoutCallback                       
20006288  macTaskId                                    
00202549  macTaskInit                                  
00203405  macTimer                                     
002033a5  macTimerAddTimer                             
002033e5  macTimerAligned                              
00203437  macTimerCancel                               
00203469  macTimerGetTime                              
00203255  macTimerInit                                 
0020348b  macTimerRealign                              
00203329  macTimerRecalcUnaligned                      
0020341d  macTimerRemoveTimer                          
00203560  macTimerRolloverValue                        
002034e1  macTimerSetRollover                          
0020346d  macTimerStart                                
002034d3  macTimerSyncRollover                         
0020326b  macTimerUpdateBackoffTimer                   
0020088d  macTrackPeriodCallback                       
00200845  macTrackStartCallback                        
002007d5  macTrackTimeoutCallback                      
2000677c  macTxAckIsrTimer                             
00226c45  macTxAckNotReceivedCallback                  
00222fed  macTxAckReceivedCallback                     
20006938  macTxActive                                  
20006939  macTxBe                                      
0020054d  macTxBeaconCompleteCallback                  
0022306d  macTxChannelBusyCallback                     
00201955  macTxCompleteCallback                        
2000693a  macTxCsmaBackoffDelay                        
00224b65  macTxDoneCallback                            
00217f09  macTxFrame                                   
00201ccc  macTxFrameFailed                             
0022a5a9  macTxFrameRetransmit                         
00201cc0  macTxFrameSuccess                            
00229fc9  macTxInit                                    
0022bbb2  macTxSlottedDelay                            
00225799  macTxStartQueuedFrame                        
00229c2d  macTxTimestampCallback                       
2000693b  macTxType                                    
0020265d  mac_msg_deallocate                           
0021ccc5  main                                         
200071a0  main_func_sp                                 
20007140  matchED                                      
00220b81  memcpy                                       
002237cb  memset                                       
20005dd4  neighborTable                                
00204615  nlmeConflictedAddr                           
200066e4  notMyChildList                               
00204dd1  nwkAddPanId                                  
002060ef  nwkBuildDataCnf                              
00204e85  nwkChangePanID                               
0020571d  nwkConvertLqiToCost                          
00205bad  nwkCreateDuplicateNV                         
0020e88d  nwkDB_Add                                    
0020e9ab  nwkDB_CountIndirectHold                      
0020e8f3  nwkDB_CountTypes                             
0020e867  nwkDB_CreateHdr                              
0020e9ed  nwkDB_DeleteRecAll                           
0020e96f  nwkDB_FindDataPkt                            
0020e94b  nwkDB_FindDstAddr                            
0020e935  nwkDB_FindHandle                             
0020e985  nwkDB_FindMatch                              
0020e911  nwkDB_FindNextType                           
0020e863  nwkDB_MaxIndirectSent                        
0020e9c9  nwkDB_RemoveFromList                         
0020e9c5  nwkDB_ReturnIndirectHoldingCnt               
0020458f  nwkDB_UserDataLoad                           
200068b8  nwkDataBufQueue                              
2000684c  nwkFrameCounter                              
20006848  nwkFrameCounterChanges                       
00204e63  nwkFreePanIdList                             
00204ccd  nwkHandleBrokenRoute                         
002052f7  nwkLinkStatusWithinRange                     
002050f3  nwkListStatusAddToSortedList                 
00205f54  nwkMsgProcs                                  
0020573f  nwkNeighborAdd                               
002054dd  nwkNeighborCheckAddr                         
00205463  nwkNeighborClearEntry                        
002053df  nwkNeighborCount                             
00205369  nwkNeighborFind                              
0020539f  nwkNeighborFindEmptySlot                     
002055e5  nwkNeighborFindRandom                        
002054a5  nwkNeighborGetLinkInfo                       
00205429  nwkNeighborGetWithIndex                      
0020532b  nwkNeighborInitTable                         
0020547b  nwkNeighborKeepPANID                         
0020540f  nwkNeighborRemove                            
002057cd  nwkNeighborRemoveAllStranded                 
0020552d  nwkNeighborUpdateAge                         
002056e7  nwkNeighborUpdateNwkAddr                     
00204dfb  nwkProcessPanIdScan                          
00204f59  nwkSendLinkStatus                            
20006831  nwkSendMTOReq                                
2000693c  nwkStatus                                    
00204d11  nwkTransmissionFailures                      
002074b1  nwk_BeaconFromNative                         
0020745b  nwk_BeaconToNative                           
0020eb41  nwk_DeleteDataBufs                           
0020589d  nwk_ExtPANIDValid                            
0020e6d5  nwk_MacDataBuffersAdd                        
0020e7c7  nwk_MacDataBuffersDealloc                    
0020e6ab  nwk_MacDataBuffersFull                       
00207055  nwk_ScanPANChanSelect                        
00206f91  nwk_ScanPANChanVerify                        
0020e687  nwk_SendNextDataBuf                          
0022abc1  nwk_Status                                   
0022196f  nwk_adjustDelay                              
20006ffc  nwk_beaconPayload                            
20006ff8  nwk_beaconPayloadSize                        
0020eb01  nwk_broadcastReceive                         
0020eabb  nwk_broadcastSend                            
0020602b  nwk_data_req_send                            
002073f7  nwk_desc_list_free                           
002073ef  nwk_desc_list_release                        
00205c65  nwk_event_loop                               
00207399  nwk_getNetworkDesc                           
002073e9  nwk_getNwkDescList                           
0022a2ad  nwk_globals_init                             
00205c19  nwk_init                                     
00207561  nwk_send_direct_leave_req                    
0020754f  nwk_setStateIdle                             
00206135  nwk_set_poll_evt                             
00207229  nwk_start_coord                              
0020755b  nwk_stateIdle                                
0020ea19  nwkbufs_hold                                 
0020e67d  nwkbufs_init                                 
0020ea8b  nwkbufs_reset                                
002213c9  osalAddTimer                                 
0022a5fb  osalAdjustTimer                              
0022aa71  osalDeleteTimer                              
00227e95  osalFindTimer                                
0021e4f9  osalInitTasks                                
0022ad2d  osalTimerInit                                
002183a5  osalTimerUpdate                              
0022ad39  osal_GetSystemClock                          
00228cbd  osal_buffer_uint24                           
00227a93  osal_buffer_uint32                           
0022a2cd  osal_build_uint16                            
00221731  osal_build_uint32                            
00225a41  osal_clear_event                             
00226dd5  osal_get_timeoutEx                           
00229fed  osal_init_system                             
0022a615  osal_int_disable                             
0022a62f  osal_int_enable                              
00226e23  osal_isbufset                                
00218095  osal_mem_alloc                               
002239a5  osal_mem_free                                
0022832d  osal_mem_init                                
002268c5  osal_mem_kick                                
00228029  osal_memcmp                                  
002288b9  osal_memcpy                                  
0022a7e1  osal_memset                                  
0022836d  osal_msg_allocate                            
00229a47  osal_msg_deallocate                          
00226327  osal_msg_dequeue                             
00224d7f  osal_msg_enqueue                             
00220ae5  osal_msg_enqueue_max                         
002255a3  osal_msg_extract                             
0022539d  osal_msg_find                                
002288f5  osal_msg_push                                
00220179  osal_msg_receive                             
0022a8df  osal_msg_send                                
00225405  osal_nv_delete                               
0022adb7  osal_nv_init                                 
00225fb5  osal_nv_item_init                            
00224bd1  osal_nv_item_len                             
0022021d  osal_nv_read                                 
0021099d  osal_nv_write                                
0022a7f9  osal_pwrmgr_device                           
0022a811  osal_pwrmgr_init                             
200068f0  osal_qHead                                   
0022ae29  osal_rand                                    
00227ad9  osal_revmemcpy                               
0021cdb1  osal_run_system                              
00225aa1  osal_set_event                               
0022637d  osal_start_reload_timer                      
0022ae31  osal_start_system                            
0022724d  osal_start_timerEx                           
002269c1  osal_stop_timerEx                            
2000713c  pAPSF_IgnoreBlock                            
20006f70  pAPS_BindingTimeoutCB                        
20006714  pAPS_DataConfirmReflect                      
20006718  pAPS_DataIndReflect                          
20006710  pAPS_GetBind                                 
2000670c  pAPS_UnBind                                  
20006654  pAssocChildAging                             
20006658  pAssocChildTableUpdateTimeout                
20006f94  pBindInitNV                                  
20006f9c  pBindRestoreFromNV                           
20006f98  pBindSetDefaultNV                            
20006fa0  pBindWriteNV                                 
20006dc8  pMacDataTx                                   
200067b0  pNLME_NetworkFormationConfirm                
20006748  pNwkFreqAgilityIncErrorCnt                   
20006744  pNwkFreqAgilityIncTotalTx                    
20006740  pNwkFreqAgilityScanCfg                       
20006664  pNwkNotMyChildListAdd                        
20006660  pNwkNotMyChildListAging                      
20006668  pNwkNotMyChildListDelete                     
2000665c  pNwkNotMyChildListInit                       
2000666c  pNwkNotMyChildSendLeave                      
20006ef8  pRespondentCurr                              
20006ef4  pRespondentHead                              
20006efc  pRespondentNext                              
20007190  pSspAesEncrypt                               
20006fd4  pZDNwkMgr_EDScanConfirmCB                    
20006fd8  pZDNwkMgr_NetworkReportCB                    
20006fdc  pZDNwkMgr_NetworkUpdateCB                    
20006fd0  pZDNwkMgr_ProcessDataConfirm                 
20006fcc  pZDNwkMgr_ReportChannelInterference          
2000716c  pZMac_AppCallback                            
20006f18  pZclGp_ProxyTableEntries                     
20006f20  pZclGp_gppBlockedGPDID                       
20006f88  pbindAddEntry                                
20006f8c  pbindNumOfEntries                            
20006f90  pbindRemoveDev                               
20007150  pfnBindNotificationCB                        
2000714c  pfnIdentifyTimeChangeCB                      
200067a8  pnwk_ScanPANChanSelect                       
200067ac  pnwk_ScanPANChanVerify                       
20007029  prevDevState                                 
00210019  pt_ZclReadGetProxyEntry                      
20006878  pwrmgr_attribute                             
00212805  reflectTrack_AddNewEntry                     
0021287f  reflectTrack_AddToEnd                        
0021289d  reflectTrack_FindEntry                       
00212931  reflectTrack_FindEntryStatus                 
002128b3  reflectTrack_FindHandle                      
002127dd  reflectTrack_GetNewEntry                     
0021282d  reflectTrack_NumEntries                      
00212841  reflectTrack_RemoveEntry                     
0020d7b9  reflectTrack_RemoveEntryNotify               
00212765  reflectTrack_SetMaxEntries                   
00212909  reflectTrack_UpdateHandle                    
002128df  reflectTrack_UpdateOption                    
002129ad  reflectTracking_FillInFailed                 
002127ad  reflectTracking_GetMaxIndirect               
002127b3  reflectTracking_GetMaxIndirectAdjusted       
00212771  reflectTracking_GetMaxSimultaneous           
00212777  reflectTracking_GetMaxSimultaneousAdjusted   
00212959  reflectTracking_GetNumDelivered              
0021298d  reflectTracking_GetNumFailed                 
002127a1  reflectTracking_SetMaxIndirect               
0021276b  reflectTracking_SetMaxSimultaneous           
20007088  requestLinkKeyTimeout                        
20007084  requestNewTrustCenterLinkKey                 
2000702b  retryCnt                                     
20006923  rreqCounter                                  
2000631c  rtDiscTable                                  
200066a4  rtgSrcRelayList                              
20006218  rtgSrcTable                                  
20005f94  rtgTable                                     
200068f4  runtimeChannel                               
002263d3  sAddrCmp                                     
00229a71  sAddrCpy                                     
00227ed9  sAddrExtCmp                                  
0022ab1b  sAddrExtCpy                                  
20007095  sLightLevel                                  
0022bdaf  sLightOff                                    
0022bdc0  sLightOn                                     
20006838  saveExtAddr                                  
20006908  savedQueuedPollRate                          
2000679a  savedResponseRate                            
002169b9  sspAesDecrypt                                
00229d17  sspAesDecryptHW                              
002169a3  sspAesEncrypt                                
00229d3d  sspAesEncryptHW                              
00216869  sspMMOHash                                   
0022ac37  ssp_HW_KeyInit                               
0022aa99  strlen                                       
0022bb64  tasksArr                                     
0022bb31  tasksCnt                                     
200068f8  tasksEvents                                  
0022ba8c  timeoutValue                                 
20007010  timerAlignedQ                                
200068fc  timerHead                                    
2000700c  timerUnalignedQ                              
20006f03  touchLinkTargetEnabled                       
20006f01  vDoPrimaryScan                               
20006e86  zTouchLinkNwkStartRtr                        
0022bef1  zclCmdsArraySize                             
002210df  zclFindAttrRec                               
00228cf5  zclFindAttrRecsList                          
002227d9  zclGeneral_RegisterCmdCallbacks              
00225b01  zclGeneral_SendIdentifyQueryResponse         
00224de9  zclGetAttrDataLength                         
00219e09  zclGetDataTypeLength                         
0022b414  zclGp_Attrs                                  
00212c31  zclGp_DataIndParse                           
00215441  zclGp_ManteinanceIndParse                    
0022bb63  zclGp_NumAttributes                          
0022285d  zclGp_RegisterCmdCallbacks                   
002173dd  zclGp_SendGpCommissioningNotificationCommand 
00217721  zclGp_SendGpNotificationCommand              
0021d069  zclGp_SendGpProxyTableResponse               
20006f26  zclGp_clusterRevision                        
20007108  zclGp_gpLinkKey                              
20007118  zclGp_gpSharedSecurityKey                    
20006f24  zclGp_gpSharedSecurityKeyType                
20006f3d  zclGp_gppActiveFunctionality                 
20007155  zclGp_gppFunctionality                       
20006f14  zclGp_gppMaxProxyTableEntries                
20006f1e  zclGp_gppMaxSearchCounter                    
20006f1c  zclGp_gppNotificationRetryNumber             
20006f1d  zclGp_gppNotificationRetryTimer              
00221851  zclGpp_ReadWriteAttrCB                       
0022316d  zclHA_uint8toa                               
0021ef45  zclParseHdr                                  
002284ed  zclParseInDiscAttrsCmd                       
00229113  zclParseInDiscCmdsCmd                        
00223a95  zclParseInReadCmd                            
00218c79  zclParseInWriteCmd                           
00227b1f  zclReadAttrData                              
0022b018  zclSampleLight_Attrs                         
0022be54  zclSampleLight_Cmds                          
20006900  zclSampleLight_CurrentLevel32                
0022bdd1  zclSampleLight_DateCode                      
2000693d  zclSampleLight_DeviceEnable                  
20006808  zclSampleLight_DstAddr                       
200071ad  zclSampleLight_GroupsNameSupport             
0022beee  zclSampleLight_HWRevision                    
20006916  zclSampleLight_IdentifyTime                  
0022be80  zclSampleLight_InClusterList                 
0021b955  zclSampleLight_Init                          
2000693e  zclSampleLight_LevelChangeCmd                
2000693f  zclSampleLight_LevelCurrentLevel             
20006940  zclSampleLight_LevelDefaultMoveRate          
20006941  zclSampleLight_LevelLastLevel                
20006918  zclSampleLight_LevelOffTransitionTime        
20006942  zclSampleLight_LevelOnLevel                  
2000691a  zclSampleLight_LevelOnOffTransitionTime      
2000691c  zclSampleLight_LevelOnTransitionTime         
2000691e  zclSampleLight_LevelRemainingTime            
200066f8  zclSampleLight_LocationDescription           
0022bde2  zclSampleLight_ManufacturerName              
0022bdf3  zclSampleLight_ModelId                       
20006943  zclSampleLight_NewLevel                      
20006944  zclSampleLight_NewLevelUp                    
0022bef2  zclSampleLight_NumAttributes                 
20006945  zclSampleLight_OnOff                         
20006946  zclSampleLight_PhysicalEnvironment           
0022bef0  zclSampleLight_PowerSource                   
20006904  zclSampleLight_Rate32                        
00220409  zclSampleLight_ResetAttributesToDefaultValues
2000705c  zclSampleLight_SimpleDesc                    
20006947  zclSampleLight_TaskID                        
0022ac45  zclSampleLight_UiActionToggleLight           
0022be64  zclSampleLight_UiStatesMain                  
00225f59  zclSampleLight_UiUpdateLcd                   
0022a011  zclSampleLight_UpdateLedState                
20006948  zclSampleLight_WithOnOff                     
0022beef  zclSampleLight_ZCLVersion                    
0022beec  zclSampleLight_clusterRevision_all           
0021ee8d  zclSampleLight_event_loop                    
002139f1  zclSerializeData                             
002236cd  zcl_HandleExternal                           
20006fa8  zcl_InSeqNum                                 
0022a859  zcl_Init                                     
0020f931  zcl_ProcessMessageMSG                        
00226429  zcl_ReadAttrData                             
00217d79  zcl_SendCommand                              
0022647f  zcl_SendDefaultRspCmd                        
0021ba5d  zcl_SendDiscoverAttrsExtRsp                  
0021c43f  zcl_SendDiscoverAttrsRspCmd                  
0021bb65  zcl_SendDiscoverCmdsRspCmd                   
002178b9  zcl_SendReadRsp                              
0021c905  zcl_SendWriteRsp                             
20006949  zcl_TaskID                                   
20006fa9  zcl_TransID                                  
20006fa4  zcl_ValidateAttrDataCB                       
00219225  zcl_event_loop                               
0022ad51  zcl_getRawAFMsg                              
00223b0d  zcl_registerAttrList                         
00224649  zcl_registerCmdList                          
0022ab2d  zcl_registerForMsg                           
002246b9  zcl_registerPlugin                           
00229145  zcl_registerReadWriteCB                      
20007020  zdappMgmtNwkDiscReqInProgress                
200065b0  zdoCBFunc                                    
200070d4  zdoMsgCBs                                    
20007148  zdpExternalStateTaskID                       
0022b4a4  zdpMsgProcs                                  
00210f8d  zdpProcessAddrReq                            
20006e71  zgAllowInstallCodes                          
20006e70  zgAllowRejoins                               
20006e72  zgAllowRemoteTCPolicyChange                  
20006e8a  zgApsAckWaitMultiplier                       
20006e9a  zgApsAllowR19Sec                             
20006e8c  zgApsDefaultMaxBindingTime                   
20006e99  zgApsLinkKeyType                             
20006e96  zgApsMinDupRejTableSize                      
20006e8f  zgApsNonMemberRadius                         
20007178  zgApsTrustCenterAddr                         
20007180  zgApsUseExtendedPANID                        
20006e8e  zgApsUseInsecureJoin                         
20006e88  zgApscAckWaitDurationPolled                  
20006e94  zgApscDupRejTimeoutCount                     
20006e92  zgApscDupRejTimeoutInc                       
20006e87  zgApscMaxFrameRetries                        
20006e77  zgBcastDeliveryTime                          
20006e85  zgChildAgingEnable                           
20006e7a  zgConcentratorDiscoveryTime                  
20006e79  zgConcentratorEnable                         
20006e7c  zgConcentratorRC                             
20006e7b  zgConcentratorRadius                         
20006e9e  zgConfigPANID                                
20006e68  zgDefaultChannelList                         
20006e5c  zgDefaultRejoinBackoff                       
20006e60  zgDefaultRejoinScan                          
20006ea0  zgDeviceLogicalType                          
20006e84  zgEndDeviceConfiguration                     
20006e83  zgEndDeviceTimeoutValue                      
20006880  zgExtendedPANID                              
20006f38  zgGP_InCommissioningMode                     
20006e6d  zgIndirectMsgTimeout                         
00224ca9  zgInit                                       
00223b85  zgInitItems                                  
20006e75  zgMaxBcastRetires                            
20006e64  zgMaxDataRetries                             
20006e65  zgMaxPollFailureRetries                      
20006e90  zgNwkCommissionedNwkAddr                     
20006e82  zgNwkEndDeviceLeaveTimeoutDefault            
20006e81  zgNwkEndDeviceTimeoutDefault                 
20006e7f  zgNwkLeaveRequestAllowed                     
20006ea3  zgNwkMgrMinTransmissions                     
20006ea4  zgNwkMgrMode                                 
20006e78  zgNwkMode                                    
20006e80  zgNwkParentInformation                       
20006e7d  zgNwkSrcRtgExpiryTime                        
20006e76  zgPassiveAckTimeout                          
20006e4c  zgPollRate                                   
20006e98  zgPreConfigKeys                              
20006e54  zgQueuedPollRate                             
20006e58  zgRejoinPollRate                             
20006e56  zgResponsePollRate                           
20006e73  zgRouteDiscoveryTime                         
20006e74  zgRouteExpiryTime                            
20006e7e  zgRouterOffAssocCleanup                      
20006ea5  zgSapiEndpoint                               
20006e50  zgSavedPollRate                              
20006e6f  zgSecurePermitJoin                           
20006e6e  zgSecurityMode                               
20006e6c  zgStackProfile                               
20006ea1  zgStartDelay                                 
20006e9b  zgSwitchCoordKey                             
20006e9c  zgSwitchCoordKeyIndex                        
2000694a  zgUseDefaultTCLK                             
00224e53  zgWriteStartupOptions                        
20006ea2  zgZdoDirectCB                                
0022be44  zgpSharedKey                                 
0022bd8c  zmacCBSizeTable                              


GLOBAL SYMBOLS: SORTED BY Symbol Address 

address   name                                         
-------   ----                                         
00000100  __STACK_SIZE                                 
00200000  g_pfnVectors                                 
00200101  macBeaconInit                                
0020011f  macBeaconReset                               
00200135  macBeaconSetSched                            
002001c9  macBeaconCheckSched                          
002001ed  macBeaconRequeue                             
0020022d  macBeaconCheckTxTime                         
00200289  macBeaconSetupCap                            
002002d5  MAC_InitBeaconCoord                          
00200303  macBeaconSetPrepareTime                      
00200329  macBeaconCheckStartTime                      
00200381  macApiBeaconStartReq                         
002003c7  macBeaconPeriodCallback                      
002003ef  macBeaconTxCallback                          
00200441  macBeaconPrepareCallback                     
00200493  macStartBeaconPrepareCallback                
002004c9  macBeaconStartContinue                       
00200547  macBeaconBattLifeCallback                    
0020054d  macTxBeaconCompleteCallback                  
002005e7  macBeaconSetupBroadcast                      
0020062b  macOutgoingNonSlottedTx                      
00200659  macBeaconSchedRequested                      
0020068f  macBeaconClearIndirect                       
002006c3  macBroadcastPendCallback                     
002006cb  macBeaconStopTrack                           
002006f7  macIncomingNonSlottedTx                      
0020072f  macBeaconSyncLoss                            
0020078b  macSyncTimeoutCallback                       
002007d5  macTrackTimeoutCallback                      
00200845  macTrackStartCallback                        
0020088d  macTrackPeriodCallback                       
002008d9  macRxBeaconCritical                          
002009e1  MAC_InitBeaconDevice                         
00200a2d  macCheckPendAddr                             
00200a79  macAutoPoll                                  
00200b25  macApiSyncReq                                
00200bfd  macBeaconStartFrameResponseTimer             
00200c49  macStartBroadcastPendTimer                   
00200c89  macCoordReset                                
00200d19  macBuildAssociateRsp                         
00200d87  macBuildRealign                              
00200e01  macPendAddrLen                               
00200e1d  macBuildPendAddr                             
00200edb  macBuildBeacon                               
00200fb5  macIndirectMark                              
0020100d  macIndirectSend                              
00201089  macIndirectExpire                            
00201145  macIndirectTxFrame                           
00201199  macIndirectRequeueFrame                      
002011f1  macRxAssociateReq                            
00201231  macApiAssociateRsp                           
00201261  macRxOrphan                                  
00201295  macApiOrphanRsp                              
002012f5  macApiPurgeReq                               
00201369  macApiStartReq                               
002013d9  macStartBegin                                
00201441  macStartSetParams                            
002014b1  macStartContinue                             
002014d1  macStartComplete                             
002014f5  macRxBeaconReq                               
00201529  macRxDataReq                                 
002015a9  macRxPanConflict                             
002015bd  MAC_InitCoord                                
002015fc  macStartingSt                                
00201661  MAC_MlmeAssociateRsp                         
0020166b  MAC_MlmeOrphanRsp                            
00201675  MAC_McpsPurgeReq                             
00201685  MAC_MlmeStartReq                             
0020168d  macDataReset                                 
002016e1  macAllocTxBuffer                             
00201721  macFrameDuration                             
00201763  macRxCheckPendingCallback                    
0020177b  macRxCheckMACPendingCallback                 
002017a1  macDataRxMemAlloc                            
002017bd  macDataRxMemFree                             
002017c7  macRxCompleteCallback                        
00201889  macDataTxTimeAvailable                       
002018a1  macBuildDataFrame                            
002018dd  macCheckSched                                
002018f5  macSetSched                                  
002018ff  macDataTxComplete                            
00201955  macTxCompleteCallback                        
00201a55  macDataTxSend                                
00201b3b  macDataTxEnqueue                             
00201bb1  macDataSend                                  
00201bb3  macApiDataReq                                
00201c15  macDataRxInd                                 
00201c1d  MAC_McpsDataReq                              
00201c89  MAC_McpsDataAlloc                            
00201ca5  macDataTxDelayCallback                       
00201cc0  macTxFrameSuccess                            
00201ccc  macTxFrameFailed                             
00201cd9  macDeviceReset                               
00201d71  macAssociateCnf                              
00201da5  macPollCnf                                   
00201dbd  macBuildAssociateReq                         
00201e01  macStartResponseTimer                        
00201e15  macStartFrameResponseTimer                   
00201e49  macApiAssociateReq                           
00201ecd  macAssocDataReq                              
00201f0d  macAssocDataReqComplete                      
00201f41  macRxAssocRsp                                
00201fb9  macAssocFrameResponseTimeout                 
00201fdd  macAssocFailed                               
00202015  macAssocRxDisassoc                           
00202021  macAssocDataRxInd                            
00202079  macApiPollReq                                
002020cd  macPollDataReqComplete                       
00202129  macPollDataRxInd                             
00202181  macPollFrameResponseTimeout                  
002021a5  macPollRxDisassoc                            
002021bd  macPollRxAssocRsp                            
002021d9  macRxCoordRealign                            
0020223d  macPanConflictComplete                       
00202241  MAC_InitDevice                               
00202270  macAssociatingSt                             
002022d5  MAC_MlmeAssociateReq                         
002022dd  MAC_MlmePollReq                              
002022e3  macMainReset                                 
00202319  macSetEvent                                  
00202324  macPollingSt                                 
00202389  macCbackForEvent                             
0020240c  macCbackEventTbl                             
00202419  macStateIdle                                 
00202425  macStateIdleOrPolling                        
00202439  macStateScanning                             
00202449  macExecute                                   
00202499  macSendMsg                                   
002024d7  macSendDataMsg                               
00202524  macSendMsgBufSize                            
00202530  macSendMsgDataSize                           
00202549  macTaskInit                                  
00202559  macEventLoop                                 
0020264f  macMainReserve                               
0020265d  mac_msg_deallocate                           
0020269d  macMgmtReset                                 
002026ef  macGetCoordAddress                           
0020270d  macGetMyAddrMode                             
00202723  macDestAddrCmp                               
0020275b  macDestSAddrCmp                              
002027a1  macCoordAddrCmp                              
002027c5  macCoordDestAddrCmp                          
002027ff  macBuildHeader                               
00202965  macBuildCommonReq                            
002029bb  macBuildDisassociateReq                      
00202a05  macBuildBeaconNotifyInd                      
00202aad  macSecCpy                                    
00202ab5  macNoAction                                  
00202ab7  macApiUnsupported                            
00202abb  macDefaultAction                             
00202ac9  macApiBadState                               
00202acd  macApiPending                                
00202af5  macCommStatusInd                             
00202bb5  macApiDisassociateReq                        
00202c15  macDisassocComplete                          
00202c55  macRxDisassoc                                
00202cb1  macRxBeacon                                  
00202d37  macConflictSyncLossInd                       
00202d51  MAC_MlmeDisassociateReq                      
00202d5b  MAC_MlmeResetReq                             
00202de3  MAC_ResumeReq                                
00202e3b  MAC_YieldReq                                 
00202e57  MAC_MlmeSyncReq                              
00202e5f  MAC_Init                                     
00202ea1  MAC_RandomByte                               
00202ea5  macPwrReset                                  
00202eb5  macApiPwrOnReq                               
00202eb7  MAC_PwrOffReq                                
00202ee5  MAC_PwrOnReq                                 
00202ef9  MAC_PwrMode                                  
00202f09  macPwrVote                                   
00202f0b  macScanCnfInit                               
00202f25  macApiScanReq                                
00202fe1  macScanNextChan                              
00203091  macScanStartTimer                            
002030d5  macScanRxBeacon                              
00203171  macScanRxCoordRealign                        
002031f9  macScanComplete                              
00203231  macScanFailedInProgress                      
0020324d  MAC_MlmeScanReq                              
00203255  macTimerInit                                 
0020326b  macTimerUpdateBackoffTimer                   
002032c3  macBackoffTimerTriggerCallback               
00203329  macTimerRecalcUnaligned                      
0020335d  macBackoffTimerRolloverCallback              
002033a5  macTimerAddTimer                             
002033e5  macTimerAligned                              
00203405  macTimer                                     
0020341d  macTimerRemoveTimer                          
00203437  macTimerCancel                               
00203469  macTimerGetTime                              
0020346d  macTimerStart                                
0020348b  macTimerRealign                              
002034d3  macTimerSyncRollover                         
002034e1  macTimerSetRollover                          
0020350d  MAC_PwrNextTimeout                           
00203560  macTimerRolloverValue                        
002035a1  NLDE_DataReqSend                             
002037a3  NLDE_DataIndSend                             
0020380f  NLDE_SendMsg                                 
00203a47  NLDE_BuildSrcRtgFrame                        
00203a8b  NLDE_ParseMsg                                
00203b99  NLDE_ParseFrameControl                       
00203be1  NLDE_CheckFrameSecurity                      
00203c0d  NLDE_ParseMsg2                               
00203cb1  NLME_GetExtAddr                              
00203cc3  NLME_GetShortAddr                            
00203ccb  NLME_GetCoordShortAddr                       
00203cd3  NLME_GetCoordExtAddr                         
00203cdb  NLDE_GetHandle                               
00203cf7  RTG_UpdateNeighborEntry                      
00203e8b  NLME_SetPollRate                             
00203eb7  NLME_SetQueuedPollRate                       
00203ebf  NLME_SetResponseRate                         
00203ec7  NLME_InitNV                                  
00203f2f  NLME_SetDefaultNV                            
00203f63  NLME_RestoreFromNV                           
0020403b  NLME_UpdateNV                                
00204085  NLME_SetAssocFlags                           
00204143  NLME_SetUpdateID                             
00204185  NLME_RejoinReqCmdProcess                     
002041e1  NLME_RejoinRspSend                           
00204261  NLME_RejoinRspCmdProcess                     
002042ed  NLME_LeaveCmdSend                            
00204379  NLME_LeaveCmdProcess                         
00204433  NLME_CmdCnf                                  
002044af  NLME_CmdBcast                                
002044c1  NLME_CmdDataReqAlloc                         
002044e3  NLME_GetProtocolVersion                      
002044e9  NLME_GetEnergyThreshold                      
002044f1  NLME_SetEnergyThreshold                      
00204501  NLME_SetBroadcastFilter                      
0020451d  NLME_IsAddressBroadcast                      
0020455b  NLME_RemoveChild                             
0020458f  nwkDB_UserDataLoad                           
002045a1  NLME_NwkStatusAddrConflictProcess            
00204615  nlmeConflictedAddr                           
0020463b  NLME_ProcessAddressConflictLocal             
002046cd  NLME_AddressConflictAssignNewStochastic      
002046fd  NLME_CheckNewAddrSet                         
002047c1  NLME_ReportAddressConflict                   
002047eb  NLDE_CheckForAddrConflict                    
00204821  NLME_SendNetworkStatus                       
0020486f  NLME_ProcessNetworkStatus                    
00204961  NLME_SendNetworkReport                       
002049ef  NLME_ProcessNetworkReport                    
00204acd  NLME_SendNetworkUpdate                       
00204b3b  NLME_ProcessNetworkUpdate                    
00204b91  NLME_SendEndDevTimeoutReq                    
00204bd7  NLME_ProcessEndDevTimeoutReq                 
00204c41  NLME_SendEndDevTimeoutRsp                    
00204c9b  NLME_ProcessEndDevTimeoutRsp                 
00204ccd  nwkHandleBrokenRoute                         
00204d11  nwkTransmissionFailures                      
00204dd1  nwkAddPanId                                  
00204dfb  nwkProcessPanIdScan                          
00204e63  nwkFreePanIdList                             
00204e85  nwkChangePanID                               
00204ef3  NLME_UpdateLinkStatus                        
00204f1d  NLME_SetLinkStatusTimer                      
00204f59  nwkSendLinkStatus                            
002050f3  nwkListStatusAddToSortedList                 
00205155  NLME_SendLinkStatus                          
002051c1  NLME_ProcessLinkStatus                       
002052f7  nwkLinkStatusWithinRange                     
0020532b  nwkNeighborInitTable                         
00205369  nwkNeighborFind                              
0020539f  nwkNeighborFindEmptySlot                     
002053df  nwkNeighborCount                             
0020540f  nwkNeighborRemove                            
00205429  nwkNeighborGetWithIndex                      
00205463  nwkNeighborClearEntry                        
0020547b  nwkNeighborKeepPANID                         
002054a5  nwkNeighborGetLinkInfo                       
002054dd  nwkNeighborCheckAddr                         
0020552d  nwkNeighborUpdateAge                         
002055e5  nwkNeighborFindRandom                        
002056e7  nwkNeighborUpdateNwkAddr                     
0020571d  nwkConvertLqiToCost                          
0020573f  nwkNeighborAdd                               
002057cd  nwkNeighborRemoveAllStranded                 
002057d3  NwkFreqAgilityInit                           
0020589d  nwk_ExtPANIDValid                            
002058b9  NLME_ReadNwkKeyInfo                          
002058d9  NwkInitChildAging                            
00205925  NwkNotMyChildSendLeave                       
00205a01  NwkNotMyChildListInit                        
00205a25  NwkNotMyChildListAging                       
00205aad  NwkNotMyChildListAdd                         
00205b1d  NwkNotMyChildListDelete                      
00205bad  nwkCreateDuplicateNV                         
00205c19  nwk_init                                     
00205c65  nwk_event_loop                               
00205f54  nwkMsgProcs                                  
00205fc7  NwkPollReq                                   
0020602b  nwk_data_req_send                            
002060ef  nwkBuildDataCnf                              
00206135  nwk_set_poll_evt                             
00206f91  nwk_ScanPANChanVerify                        
00207055  nwk_ScanPANChanSelect                        
00207229  nwk_start_coord                              
00207399  nwk_getNetworkDesc                           
002073e9  nwk_getNwkDescList                           
002073ef  nwk_desc_list_release                        
002073f7  nwk_desc_list_free                           
0020745b  nwk_BeaconToNative                           
002074b1  nwk_BeaconFromNative                         
0020754f  nwk_setStateIdle                             
0020755b  nwk_stateIdle                                
00207561  nwk_send_direct_leave_req                    
002075cd  RTG_Init                                     
00207655  NLME_RouteDiscoveryRequest                   
0020776f  RTG_MTORouteReq                              
002077b9  RTG_GetNextHop                               
00207863  RTG_ChildGetNextHop                          
0020787f  RTG_RouteMaintanence                         
0020794b  RTG_ProcessRreq                              
00207af7  RTG_ProcessRrep                              
00207ce5  RTG_SendRErr                                 
00207d43  RTG_TimerEvent                               
00207ea9  RTG_AllocNewAddress                          
00207ed3  RTG_GetStochastic                            
00207f1d  RTG_DeAllocStochasticAddress                 
002080dd  RTG_AddSrcRtgEntry_Guaranteed                
00208179  RTG_GetRtgSrcEntry                           
00208225  RTG_ProcessRrec                              
002083bf  RTG_SrcGetNextHop                            
002083c9  RTG_ValidateSrcRtg                           
00208405  RTG_RtgRecordInitiation                      
00208485  RTG_RemoveRtgEntry                           
00208625  RTG_BcastTimerHandler                        
00208699  RTG_BcastChk                                 
0020872d  RTG_BcastAdd                                 
0020889d  RTG_BcastDel                                 
002088c9  RTG_DataReq                                  
00208995  RTG_SendNextEDMsg                            
00208a9d  RTG_GetRtgEntry                              
00208b11  RTG_CheckRtStatus                            
00208bc3  RTG_ProcessRtDiscBits                        
00208c49  RTG_SendBrokenRoute                          
00208c93  RTG_nextHopIsBad                             
00208cc7  RTG_initRtgTable                             
00208ebd  APSDE_DataReq                                
002090c1  APSDE_SetPreProcessFnp                       
002090c9  APSDE_DataReqMTU                             
002090f7  APSME_BindRequest                            
0020911d  APSME_UnBindRequest                          
0020912f  APSME_GetRequest                             
00209185  APSME_SetRequest                             
002091af  APSME_LookupExtAddr                          
00209215  APSME_LookupNwkAddr                          
00209245  NLDE_FrameDataLoad                           
00209c8b  APSME_CmdPkt                                 
00209cf9  APSDE_FrameAlloc                             
00209dc1  APSDE_FrameSend                              
00209e09  APSME_FrameSecurityRemove                    
00209e35  APSME_FrameSecurityApply                     
00209e3d  APSME_EraseICEntry                           
00209e89  APSME_SetDefaultKey                          
00209edb  APSME_AddTCLinkKey                           
00209f9d  APSME_TransportKeyReq                        
0020a165  APSME_SearchTCLinkKeyEntry                   
0020a1e9  APSME_UpdateDeviceReq                        
0020a23b  APSME_RemoveDeviceReq                        
0020a29d  APSME_RequestKeyReq                          
0020a313  APSME_VerifyKeyReq                           
0020a40d  APSME_SwitchKeyReq                           
0020a453  APSME_ConfirmKeyReq                          
0020a4e7  APSME_SecurityNM                             
0020a4f5  APSME_SecurityRM_ED                          
0020a509  APSME_SecurityRM_RD                          
0020a517  APSME_SecurityRM_CD                          
0020a525  APSME_SecurityCM_ED                          
0020a533  APSME_SecurityCM_RD                          
0020a541  APSME_SecurityCM_CD                          
0020a54f  APSME_IsDistributedSecurity                  
0020a59d  UI_UpdateLcd                                 
0020b2d1  dGP_DataInd                                  
0020b4cf  dGP_DataCnf                                  
0020b515  GP_DataReq                                   
0020b66d  GP_SecRsp                                    
0020b735  gp_DataIndReleaseFromList                    
0020ba7f  gp_DataIndAppendToList                       
0020ba9b  gp_DataIndGet                                
0020bab3  gp_FreeGpTxQueue                             
0020bad1  gp_GetHandle                                 
0020bb0d  dGP_findHandle                               
0020bb21  GPEP_findHandle                              
0020bb25  gp_Init                                      
0020bb31  gp_event_loop                                
0020bdc1  AssocInit                                    
0020bdd5  AssocCount                                   
0020be03  AssocAddNew                                  
0020bf1f  AssocChangeNwkAddr                           
0020bf8f  AssocIsChild                                 
0020bfab  AssocIsRFChild                               
0020bfc7  AssocIsParent                                
0020bfdb  AssocGetWithShort                            
0020bfe1  AssocGetWithExt                              
0020bfe3  AssocGetWithAddress                          
0020c03d  AssocRemove                                  
0020c0f5  AssocGetNextInactiveNode                     
0020c0f9  AssocGetNextChildNode                        
0020c0fd  AssocReset                                   
0020c0ff  AssocMakeList                                
0020c16f  AssocMatchDeviceStatus                       
0020c19f  AssocFindDevice                              
0020c1d5  AssocCheckDupNeighbors                       
0020c25b  AssocChildAging                              
0020c2ed  AssocChildTableUpdateTimeout                 
0020c30b  AssocChildTableManagement                    
0020c35f  AssocInitNV                                  
0020c393  AssocSetDefaultNV                            
0020c573  AssocRestoreFromNV                           
0020c6b9  AssocWriteNV                                 
0020c761  AssocMakeListOfRfdChild                      
0020c7e9  NLME_CoordinatorInit                         
0020c801  NLME_DeviceJoiningInit                       
0020c819  NLDE_DataReq                                 
0020c871  NLDE_DataReqAlloc                            
0020c8b1  NLME_NetworkDiscoveryRequest                 
0020c915  NLME_NwkDiscReq2                             
0020c969  NLME_NwkDiscTerm                             
0020c987  NLME_NetworkFormationRequest                 
0020ca7f  NLME_GetRemainingPermitJoiningDuration       
0020caab  NLME_PermitJoiningRequest                    
0020cac7  NLME_PermitJoiningEvent                      
0020cb21  NLME_DirectJoinRequest                       
0020cb27  NLME_DirectJoinRequestWithAddr               
0020cb91  NLME_OrphanStateSet                          
0020cb9d  NLME_OrphanJoinRequest                       
0020cc23  NLME_ReJoinRequest                           
0020cc27  NLME_ReJoinRequestUnsecure                   
0020cd4f  NLME_JoinRequest                             
0020ce11  NLME_StartRouterRequest                      
0020ce1b  NLME_LeaveReq                                
0020ceb5  NLME_LeaveRsp                                
0020cefb  NLME_ResetRequest                            
0020cf2b  NLME_SyncRequest                             
0020cf5f  NLME_GetRequest                              
0020d035  NLME_SetRequest                              
0020d0e1  NLME_EDScanRequest                           
0020d0fd  APS_ReflectorInit                            
0020d121  APS_Init                                     
0020d151  APS_event_loop                               
0020d23f  APS_SetEndDeviceBindTimeout                  
0020d25b  APS_CmdInd                                   
0020d7b9  reflectTrack_RemoveEntryNotify               
0020d7bd  APSME_HoldDataRequests                       
0020d931  SSP_Init                                     
0020d943  SSP_MemCpyReverse                            
0020d95b  SSP_ParseAuxHdr                              
0020d9bd  SSP_BuildAuxHdr2                             
0020da01  SSP_Process                                  
0020dac9  SSP_GetMacTags                               
0020dba9  SSP_GetTrueRand                              
0020dbf3  SSP_StoreRandomSeedNV                        
0020dc11  SSP_GetTrueRandAES                           
0020dccb  SSP_ReadNwkActiveKey                         
0020dce1  SSP_UpdateNwkKey                             
0020dd0f  SSP_SwitchNwkKey                             
0020ddb1  SSP_BuildAuxHdr                              
0020ddff  SSP_BuildNonce                               
0020de1d  SSP_GetMicLenProc                            
0020de2d  SSP_GetNwkKey                                
0020de7d  SSP_NwkSecurityProc                          
0020df91  ccmStar                                      
0020e05f  SSP_NwkSecurity                              
0020e06f  SSP_GetMicLen                                
0020e0a5  APSF_Init                                    
0020e141  APSF_SendFragmented                          
0020e31d  APSF_ProcessAck                              
0020e5a5  APSF_SendOsalMsg                             
0020e5af  APSF_ProcessEvent                            
0020e67d  nwkbufs_init                                 
0020e687  nwk_SendNextDataBuf                          
0020e6ab  nwk_MacDataBuffersFull                       
0020e6d5  nwk_MacDataBuffersAdd                        
0020e7c7  nwk_MacDataBuffersDealloc                    
0020e863  nwkDB_MaxIndirectSent                        
0020e867  nwkDB_CreateHdr                              
0020e88d  nwkDB_Add                                    
0020e8f3  nwkDB_CountTypes                             
0020e911  nwkDB_FindNextType                           
0020e935  nwkDB_FindHandle                             
0020e94b  nwkDB_FindDstAddr                            
0020e96f  nwkDB_FindDataPkt                            
0020e985  nwkDB_FindMatch                              
0020e9ab  nwkDB_CountIndirectHold                      
0020e9c5  nwkDB_ReturnIndirectHoldingCnt               
0020e9c9  nwkDB_RemoveFromList                         
0020e9ed  nwkDB_DeleteRecAll                           
0020ea19  nwkbufs_hold                                 
0020ea8b  nwkbufs_reset                                
0020eabb  nwk_broadcastSend                            
0020eb01  nwk_broadcastReceive                         
0020eb41  nwk_DeleteDataBufs                           
0020f12f  AddrMgrInit                                  
0020f15b  AddrMgrReset                                 
0020f171  AddrMgrExtAddrSet                            
0020f17f  AddrMgrExtAddrValid                          
0020f199  AddrMgrExtAddrEqual                          
0020f1b7  AddrMgrExtAddrLookup                         
0020f1dd  AddrMgrNwkAddrLookup                         
0020f20b  AddrMgrEntryRelease                          
0020f239  AddrMgrEntryAddRef                           
0020f26f  AddrMgrEntryLookupNwk                        
0020f2d7  AddrMgrEntryLookupExt                        
0020f337  AddrMgrEntryGet                              
0020f37b  AddrMgrEntryUpdate                           
0020f441  AddrMgrIsFull                                
0020f469  AddrMgrRestoreFromNV                         
0020f493  AddrMgrWriteNV                               
0020f4cd  AddrMgrInitNV                                
0020f4ef  AddrMgrSetDefaultNV                          
0020f51d  NLDE_DataCnf                                 
0020f617  NLDE_DataIndication                          
0020f833  NLME_NetworkDiscoveryConfirm                 
0020f837  NLME_NetworkFormationConfirm                 
0020f83b  NLME_StartRouterConfirm                      
0020f83f  NLME_beaconNotifyInd                         
0020f843  NLME_JoinConfirm                             
0020f847  NLME_JoinIndication                          
0020f84b  NLME_LeaveCnf                                
0020f84f  NLME_LeaveInd                                
0020f895  NLME_SyncIndication                          
0020f899  NLME_PollConfirm                             
0020f8bf  NLME_RouteDiscoveryIndication                
0020f8df  NLME_ConcentratorIndication                  
0020f8e3  NLME_EDScanConfirm                           
0020f929  NLME_CoordStartPANIDConflictCB               
0020f92d  NLME_NetworkStatusCB                         
0020f931  zcl_ProcessMessageMSG                        
00210017  AddrMgrWriteNVRequest                        
00210019  pt_ZclReadGetProxyEntry                      
00210351  ZDO_ProcessMatchDescReq                      
00210681  MAC_CbackEvent                               
0021099d  osal_nv_write                                
00210c99  ZDO_ProcessMgmtLqiReq                        
00210f8d  zdpProcessAddrReq                            
00211281  APSDE_DataConfirm                            
00211299  APSDE_DataCnf                                
002112a3  APSDE_DataIndication                         
0021133f  APSME_TransportKeyInd                        
00211379  APSME_UpdateDeviceInd                        
002113a9  APSME_RemoveDeviceInd                        
002113d7  APSME_RequestKeyInd                          
00211409  APSME_SwitchKeyInd                           
00211431  APSME_VerifyKeyInd                           
002114e9  APSME_ConfirmKeyInd                          
00211561  bdb_reportCommissioningState                 
00211809  bdb_event_loop                               
00211d49  macMcuInit                                   
00211fd9  gp_PairingUpdateProxyTlb                     
00212261  ZDMatchSendState                             
00212765  reflectTrack_SetMaxEntries                   
0021276b  reflectTracking_SetMaxSimultaneous           
00212771  reflectTracking_GetMaxSimultaneous           
00212777  reflectTracking_GetMaxSimultaneousAdjusted   
002127a1  reflectTracking_SetMaxIndirect               
002127ad  reflectTracking_GetMaxIndirect               
002127b3  reflectTracking_GetMaxIndirectAdjusted       
002127dd  reflectTrack_GetNewEntry                     
00212805  reflectTrack_AddNewEntry                     
0021282d  reflectTrack_NumEntries                      
00212841  reflectTrack_RemoveEntry                     
0021287f  reflectTrack_AddToEnd                        
0021289d  reflectTrack_FindEntry                       
002128b3  reflectTrack_FindHandle                      
002128df  reflectTrack_UpdateOption                    
00212909  reflectTrack_UpdateHandle                    
00212931  reflectTrack_FindEntryStatus                 
00212959  reflectTracking_GetNumDelivered              
0021298d  reflectTracking_GetNumFailed                 
002129ad  reflectTracking_FillInFailed                 
002129d1  AF_DataRequest                               
00212c31  zclGp_DataIndParse                           
00212e91  bindAddEntry                                 
00213339  aps_AddGroup                                 
00213395  aps_FindGroup                                
002133b1  aps_FindGroupForEndpoint                     
002133df  aps_FindAllGroupsForEndpoint                 
00213403  aps_RemoveGroup                              
0021343b  aps_RemoveAllGroup                           
0021346f  aps_CountGroups                              
00213489  aps_CountAllGroups                           
0021349b  aps_GroupsInitNV                             
002134bf  aps_GroupsSetDefaultNV                       
002134d9  aps_GroupsWriteNV                            
00213531  aps_GroupsRestoreFromNV                      
00213581  ZDO_MatchEndDeviceBind                       
002139f1  zclSerializeData                             
00213c23  Hal_ProcessPoll                              
00213c25  APSDE_ParseMsg                               
00213d25  apsGenerateAck                               
00213e0d  apsProcessAck                                
00213e51  gp_UpdateProxyTlb                            
00214079  CCMInvAuthDecryptStart                       
00214295  CCMAuthEncryptStart                          
002146a9  bdb_checkMatchingEndpoints                   
00214ca1  ZDApp_event_loop                             
00214e8d  MAC_MlmeSetReq                               
00215441  zclGp_ManteinanceIndParse                    
002159d5  IOCPinConfigPeriphInput                      
00215ba5  ZDP_SimpleDescMsg                            
00215d75  bdb_StartCommissioning                       
00215f45  flashWrite                                   
00216111  ZDO_ProcessParentAnnce                       
002162d9  ZDO_ProcessDeviceAnnce                       
00216815  SSP_KeyedHash                                
00216869  sspMMOHash                                   
002169a3  sspAesEncrypt                                
002169b9  sspAesDecrypt                                
002169cf  ZDApp_NVUpdate                               
00216b85  afIncomingData                               
00216d35  ZDO_beaconNotifyIndCB                        
0021708d  NIB_init                                     
002173dd  zclGp_SendGpCommissioningNotificationCommand 
00217581  HalLedUpdate                                 
00217721  zclGp_SendGpNotificationCommand              
002178b9  zcl_SendReadRsp                              
00217a4f  ZDApp_SaveNetworkStateEvt                    
00217a51  gp_SendScheduledMacDataReq                   
00217a7b  CGP_DataReq                                  
00217b2f  CGP_DataCnf                                  
00217b35  cGP_processMCPSDataInd                       
00217d79  zcl_SendCommand                              
00217f09  macTxFrame                                   
00218095  osal_mem_alloc                               
00218221  ZDP_MgmtBindRsp                              
002183a5  osalTimerUpdate                              
002186a3  bdb_parentLost                               
0021881d  ZDP_MgmtLqiRsp                               
00218995  AESLoadKey                                   
00218b09  ioPinIntRegister                             
00218c79  zclParseInWriteCmd                           
00218de9  APSME_TCLinkKeyLoad                          
00218f55  UI_MainStateMachine                          
002190bd  ZDO_ParseSimpleDescBuf                       
00219225  zcl_event_loop                               
002194e5  APSME_TCLinkKeySync                          
002198e5  ZDOInitDeviceEx                              
00219cc3  halAssertHandler                             
00219e09  zclGetDataTypeLength                         
00219f4d  CCMInvAuthDecryptGetResult                   
0021a081  ZDNwkMgr_event_loop                          
0021a2e9  ZDP_ParentAnnce                              
0021a549  gp_CheckAnnouncedDevice                      
0021a8d5  ZDP_NodeDescMsg                              
0021ab25  GP_DataInd                                   
0021ac49  bdb_ProcessRespondentList                    
0021ad69  lcdBufferPrintString                         
0021afa7  initFlash                                    
0021afa9  HalLedBlink                                  
0021b0c5  ZDSecMgrNwkKeyInit                           
0021b1dd  bdb_TCAddJoiningDevice                       
0021b2f5  macCspTxRequestAckTimeoutCallback            
0021b40d  GP_SecReq                                    
0021b521  ZDO_NetworkFormationConfirmCB                
0021b635  APSME_TCLinkKeyInit                          
0021b741  ZDO_ProcessBindUnbindReq                     
0021b84d  bindFindExisting                             
0021b955  zclSampleLight_Init                          
0021ba5d  zcl_SendDiscoverAttrsExtRsp                  
0021bb65  zcl_SendDiscoverCmdsRspCmd                   
0021bc65  ZDApp_ProcessSecEvent                        
0021be5d  ZDO_ParseAddrRsp                             
0021bf59  ZDO_ProcessMgmtBindReq                       
0021c055  ZDP_BindUnbindReq                            
0021c349  ZDO_ParseEndDeviceBindReq                    
0021c43f  zcl_SendDiscoverAttrsRspCmd                  
0021c535  AESECBStart                                  
0021c905  zcl_SendWriteRsp                             
0021c9f7  macBackoffTimerCancelTrigger                 
0021cae9  CCMAuthEncryptGetResult                      
0021cbd9  ZDP_MgmtNwkUpdateNotify                      
0021ccc5  main                                         
0021cdb1  osal_run_system                              
0021ce9d  ZDApp_LeaveReset                             
0021cf85  MAC_SrcMatchAddEntry                         
0021d069  zclGp_SendGpProxyTableResponse               
0021d22b  bdb_crcBitByBitFast                          
0021d307  __mpu_init                                   
0021d309  bdb_zclFindingBindingEpType                  
0021d599  ZDSecMgrReadKeyFromNv                        
0021d9d1  bindRemoveDev                                
0021dc4d  HalLedOnOff                                  
0021dd1d  HalLedSet                                    
0021dded  ZDSecMgrDeviceJoinDirect                     
0021debd  ZDO_LeaveInd                                 
0021e055  ZDApp_ProcessSecMsg                          
0021e11d  ZDO_JoinIndicationCB                         
0021e1e5  gp_getProxyTableByGpId                       
0021e2ad  ZDApp_ProcessMsgCBs                          
0021e371  ZDConfig_UpdateNodeDescriptor                
0021e435  ZDP_IncomingData                             
0021e4f9  osalInitTasks                                
0021e5bd  ZDApp_SaveNwkKey                             
0021e67d  ZDP_EPRsp                                    
0021e73d  ZDSecMgrUpdateDeviceInd                      
0021e8b9  UI_UpdateComissioningStatus                  
0021e975  ZDApp_RestoreNwkSecMaterial                  
0021ea31  ZDSecMgrSaveTCLinkKey                        
0021eaed  macCspTxGoSlotted                            
0021eba9  macSleep                                     
0021ec65  ZDO_ProcessSimpleDescReq                     
0021ed1d  ZDSecMgrNewDeviceEvent                       
0021edd5  bdb_ProcessIEEEAddrRsp                       
0021ee8d  zclSampleLight_event_loop                    
0021ef45  zclParseHdr                                  
0021effb  _system_post_cinit                           
0021effd  IOCPadConfigSet                              
0021f0b1  ZDSecMgrSetDefaultNV                         
0021f219  macBackoffTimerRealign                       
0021f435  IOCPinConfigPeriphOutput                     
0021f4e5  ZDO_StartDevice                              
0021f6f5  ZDO_ProcessParentAnnceRsp                    
0021f7a5  SysCtrlClockSet                              
0021f851  ZDO_SendMsgCBs                               
0021f8fd  ZDSecMgrSendNwkKey                           
0021fa55  BindRestoreFromNV                            
0021fafd  bdb_ProcessSimpleDesc                        
0021fd9d  bdb_AddRespondentNode                        
0021fe45  SysCtrlClockGet                              
0021fee9  SysCtrlIOClockGet                            
0021ff8d  ZDApp_LeaveUpdate                            
00220031  macMcuOverflowSetPeriod                      
002200d5  macMcuRfIsr                                  
00220179  osal_msg_receive                             
0022021d  osal_nv_read                                 
00220409  zclSampleLight_ResetAttributesToDefaultValues
002204ad  ZDSecMgrGenerateKeyFromSeed                  
002205f1  ZDSecMgrDeviceJoin                           
00220691  ZDSecMgrDeviceRemove                         
002207d1  macMcuOverflowSetCompare                     
00220911  ZDApp_NetworkStartEvt                        
002209ad  ZDO_ParseParentAnnce                         
00220a49  bindAddressClear                             
00220ae5  osal_msg_enqueue_max                         
00220b81  __aeabi_memcpy                               
00220b81  __aeabi_memcpy4                              
00220b81  __aeabi_memcpy8                              
00220b81  memcpy                                       
00220cb9  ZDApp_StoreNwkSecMaterial                    
00220d51  ZDP_PowerDescMsg                             
00220de9  bspKeyInit                                   
00220e81  bspKeyPushedEx                               
00221049  ZDO_ProcessMgmtLeaveReq                      
002210df  zclFindAttrRec                               
0022120d  BindWriteNV                                  
002212a1  ZDP_MgmtPermitJoinReq                        
002213c9  osalAddTimer                                 
0022145d  bindRemoveClusterIdFromList                  
002214f1  Hal_ProcessEvent                             
00221581  InitBindingTable                             
00221611  bdb_TCjoiningDeviceComplete                  
00221731  osal_build_uint32                            
00221851  zclGpp_ReadWriteAttrCB                       
0022196f  nwk_adjustDelay                              
00221a8b  SSIConfigSetExpClk                           
00221b17  ZDO_ParseBindUnbindReq                       
00221ba5  ZDO_RegisterForZDOMsg                        
00221cbd  ZDP_NwkAddrReq                               
00221d49  ZMacScanReq                                  
00221dd5  bdb_FindIfAppCluster                         
00221eed  bdb_setEpDescListToActiveEndpoint            
00221f79  macRadioSetTxPower                           
00222005  ZDO_ProcessActiveEPReq                       
0022208d  gp_AddCmdPayloadMsgNode                      
0022219d  gp_ProxyTblInit                              
00222225  macRadioTurnOnPower                          
002222ad  hal_key_int_keys                             
00222335  GPIOPowIntTypeSet                            
002223b9  ZDApp_SecInit                                
0022243d  ZDP_IEEEAddrReq                              
00222545  bdb_ZclIdentifyCmdInd                        
002225c9  bindFind                                     
002226d1  macRxOff                                     
002227d9  zclGeneral_RegisterCmdCallbacks              
0022285d  zclGp_RegisterCmdCallbacks                   
002229e9  GPIOIntTypeSet                               
00222a6b  bindAddrIndexGet                             
00222aed  AESECBGetResult                              
00222b6d  IntDisable                                   
00222bed  IntEnable                                    
00222c6d  ZDAppDetermineDeviceType                     
00222ced  ZDO_JoinConfirmCB                            
00222d6d  ZDP_DeviceAnnce                              
00222ded  afRegisterExtended                           
00222eed  macRadioUpdateChannel                        
00222fed  macTxAckReceivedCallback                     
0022306d  macTxChannelBusyCallback                     
0022316d  zclHA_uint8toa                               
0022326d  ZMacDataReqSec                               
002232ed  HalKeyConfig                                 
00223369  ZDP_SendData                                 
002233e5  bdb_crcInit                                  
00223559  hal_key_keys                                 
002235d5  macMcuOverflowSetCount                       
002236cd  zcl_HandleExternal                           
00223749  ZDO_ParseMgmtNwkUpdateReq                    
002237c3  __aeabi_memclr                               
002237c3  __aeabi_memclr4                              
002237c3  __aeabi_memclr8                              
002237c5  __aeabi_memset                               
002237c5  __aeabi_memset4                              
002237c5  __aeabi_memset8                              
002237cb  memset                                       
0022383d  UI_Init                                      
002238b5  ZDO_ProcessMgmtPermitJoinReq                 
0022392d  bindNumReflections                           
002239a5  osal_mem_free                                
00223a95  zclParseInReadCmd                            
00223b0d  zcl_registerAttrList                         
00223b85  zgInitItems                                  
00223bfd  SSP_CCM_InvAuth_Decrypt                      
00223c75  GetBindingTableEntry                         
00223ce9  SSP_CCM_Auth_Encrypt                         
00223d5d  ZDApp_DeviceAuthEvt                          
00223dd1  ZDApp_ProcessOSALMsg                         
00223e45  ZDO_ProcessNodeDescReq                       
00223eb9  ZDO_ProcessPowerDescReq                      
00223fa1  bindAddrMgrLocalLoad                         
00224015  bspKeyIntRegister                            
00224089  macBackoffTimerSetTrigger                    
002241e5  gp_PopulateField                             
00224259  MAC_MlmeGetReq                               
00224339  ZDSecMgrEntryLookupAMI                       
002243a9  bdb_SendIdentifyQuery                        
00224489  macRadioStartScan                            
002244f9  __TI_auto_init                               
00224649  zcl_registerCmdList                          
002246b9  zcl_registerPlugin                           
00224729  ZDO_AnyClusterMatches                        
00224805  GPIOPowIntClear                              
00224871  SysCtrlRunSetting                            
002248dd  ZDNwkMgr_Init                                
00224949  bdb_SendMsg                                  
00224a21  macCspTxPrepCsmaUnslotted                    
00224a8d  macMcuRfErrIsr                               
00224af9  macMcuTimer2Isr                              
00224b65  macTxDoneCallback                            
00224bd1  osal_nv_item_len                             
00224ca9  zgInit                                       
00224d15  bdb_crcReflect                               
00224d7f  osal_msg_enqueue                             
00224de9  zclGetAttrDataLength                         
00224e53  zgWriteStartupOptions                        
00224ebd  ZDO_AddrChangeIndicationCB                   
00224f25  ZDO_UpdateNwkStatus                          
00224f8d  ZDSecMgrApsLinkKeyInit                       
00224ff5  afReflectError                               
0022505d  bdb_ZclIdentifyQueryCmdInd                   
002250c5  bindNumOfEntries                             
0022512d  bspSpiInit                                   
002251fd  __TI_decompress_lzss                         
00225265  macCspTxPrepCsmaSlotted                      
002252cd  macMcuOverflowCount                          
00225335  macRadioUpdateTxPower                        
0022539d  osal_msg_find                                
00225405  osal_nv_delete                               
0022553d  gp_AddNotificationMsgNode                    
002255a3  osal_msg_extract                             
00225609  ResetISR                                     
0022566d  bdb_addInstallCode                           
002256d1  macLowLevelYield                             
00225735  macSleepWakeUp                               
00225799  macTxStartQueuedFrame                        
00225861  ZDP_GenericRsp                               
002258c1  gp_getProxyTableByIndex                      
00225921  lcdInit                                      
00225981  macMcuOverflowCapture                        
002259e1  macRxInit                                    
00225a41  osal_clear_event                             
00225aa1  osal_set_event                               
00225b01  zclGeneral_SendIdentifyQueryResponse         
00225bbf  GPIODirModeSet                               
00225c1d  IntRegister                                  
00225c79  SysCtrlDeepSleepSetting                      
00225cd5  SysCtrlPeripheralReset                       
00225d31  SysCtrlSleepSetting                          
00225d8d  UI_DeviceStateUpdated                        
00225de9  bdb_Init                                     
00225ea1  macRadioSetChannel                           
00225f59  zclSampleLight_UiUpdateLcd                   
00225fb5  osal_nv_item_init                            
00226011  IntPendClear                                 
00226069  ZDApp_RegisterCBs                            
002260c1  ZMacSendNoData                               
00226119  bdb_GetFBInitiatorStatus                     
00226171  macMcuTimerCapture                           
002261c9  macRxHardDisable                             
00226221  macRxOffRequest                              
002262d1  ZDSecMgrGenerateRndKey                       
00226327  osal_msg_dequeue                             
0022637d  osal_start_reload_timer                      
002263d3  sAddrCmp                                     
00226429  zcl_ReadAttrData                             
0022647f  zcl_SendDefaultRspCmd                        
002264d5  HalLcd_HW_WriteLine                          
00226529  IntPrioritySet                               
0022657d  ZDO_ConvertOTAClusters                       
002265d1  ZDSecMgrAddrStore                            
00226625  ZMacReset                                    
00226679  afDataConfirm                                
002266cd  afFindSimpleDesc                             
00226721  bindFindEmpty                                
002267c9  lcdGotoXY                                    
0022681d  macMcuTimerForceDelay                        
00226871  macRxRadioPowerUpInit                        
002268c5  osal_mem_kick                                
00226919  C$$EXIT                                      
0022691d  abort                                        
00226925  exit                                         
002269c1  osal_stop_timerEx                            
00226a15  MAC_SrcMatchEnable                           
00226a65  ZDSecMgrAPSRemove                            
00226ab5  gp_NotificationMsgClean                      
00226b05  gp_expireDuplicateFiltering                  
00226b55  lcdSendBuffer                                
00226ba5  macRxDisable                                 
00226bf5  macRxPromiscuousMode                         
00226c45  macTxAckNotReceivedCallback                  
00226dd5  osal_get_timeoutEx                           
00226e23  osal_isbufset                                
00226e71  GPIOGetIntNumber                             
00226ebd  HalKeyPoll                                   
00226f09  HalLcd_HW_Clear                              
00226f55  MAC_SrcMatchDeleteEntry                      
00226fa1  OnBoard_SendKeys                             
00226fed  ZDApp_SendParentAnnce                        
00227039  ZDO_LeaveCnf                                 
00227085  ZDP_SimpleDescReq                            
002270d1  afEndPoints                                  
0022711d  gp_stopCommissioningMode                     
00227169  macBackoffTimerSetCount                      
002271b5  macMcuAccumulatedOverFlow                    
00227201  macRxEnable                                  
0022724d  osal_start_timerEx                           
00227299  copy_in                                      
00227415  ZDApp_SendMsg                                
0022745f  bindIsClusterIDinList                        
002274f5  ZDConfig_UpdatePowerDescriptor               
00227585  ZDSecMgrEntryFree                            
002275cd  ZDSecMgrExtAddrLookup                        
00227615  ZDSecMgrInitNV                               
0022765d  bdb_findRespondentNode                       
002276a5  bdb_setNodeIsOnANetwork                      
002276ed  gp_returnOperationalChannel                  
002277c5  macBackoffTimerSetRollover                   
0022780d  macRxSoftEnable                              
00227a4d  gp_CmdPayloadMsgClean                        
00227a93  osal_buffer_uint32                           
00227ad9  osal_revmemcpy                               
00227b1f  zclReadAttrData                              
00227b65  SysCtrlWakeupSetting                         
00227ba9  ZDApp_Init                                   
00227bed  ZDNwkMgr_EDScanConfirmCB                     
00227c31  ZDO_ParseDeviceAnnce                         
00227c75  bdb_nwkFormationAttempt                      
00227cb9  gp_endpointInit                              
00227d41  lcdSendCommand                               
00227d85  lcdSendData                                  
00227dc9  macBackoffTimerCapture                       
00227e0d  macBackoffTimerCount                         
00227e51  macRxOn                                      
00227e95  osalFindTimer                                
00227ed9  sAddrExtCmp                                  
00227fe7  macPibIndex                                  
00228029  osal_memcmp                                  
0022806d  MAC_SrcMatchAckAllPending                    
002280ad  ZDSecMgrAddrClear                            
002280ed  ZDSecMgrGenerateSeed                         
0022812d  ZDSecMgrPermitJoining                        
0022816d  bindAddClusterIdToList                       
002281ad  bindingAddrMgsHelperConvert                  
002281ed  macBackoffTimerInit                          
0022822d  macCspTxGoCsma                               
0022826d  macCspTxStopIsr                              
002282ad  macMcuRandomWord                             
002282ed  macMemReadRam                                
0022832d  osal_mem_init                                
0022836d  osal_msg_allocate                            
002283ad  _c_int00                                     
002284ed  zclParseInDiscAttrsCmd                       
0022852d  ZDApp_InMsgCB                                
0022856b  bdb_zclRespondentListClean                   
00228625  FlashCacheModeSet                            
00228661  HalAdcCheckVdd                               
0022869d  InitBoard                                    
002286d9  ZDO_ConcentratorIndicationCB                 
00228715  ZDO_NetworkDiscoveryConfirmCB                
00228751  ZDO_SrcRtgIndCB                              
0022878d  ZDSecMgrUpdateTCAddress                      
002287c9  bindingAddrMgsHelperFind                     
00228841  macCspTxPrepSlotted                          
0022887d  macMemWriteRam                               
002288b9  osal_memcpy                                  
002288f5  osal_msg_push                                
002289e5  BindInitNV                                   
00228a1d  ZDApp_InitZdoCBFunc                          
00228a55  ZDNwkMgr_ReportChannelInterference           
00228a8d  ZDO_StartRouterConfirmCB                     
00228b35  afNumEndPoints                               
00228b6d  bdb_RegisterSimpleDescriptor                 
00228ba5  bspKeyIntEnable                              
00228bdd  macMemReadRxFifo                             
00228c15  macMemWriteTxFifo                            
00228c4d  macRxOnRequest                               
00228c85  macRxThresholdIsr                            
00228cbd  osal_buffer_uint24                           
00228cf5  zclFindAttrRecsList                          
00228e75  APSME_LinkKeyNVIdGet                         
00228ea9  ZDNwkMgr_ProcessDataConfirm                  
00228edd  flashErasePage                               
00228f11  interrupt_keybd                              
00228f45  macCspForceTxDoneIfPending                   
00228f79  macLowLevelReset                             
0022907d  ZDO_ParseServerDiscRsp                       
002290af  afAPSF_ConfigGet                             
002290e1  afDataReqMTU                                 
00229113  zclParseInDiscCmdsCmd                        
00229145  zcl_registerReadWriteCB                      
002291a9  MAC_SrcMatchCheckResult                      
002291d9  ZDApp_AnnounceNewAddress                     
00229209  ZDApp_ChangeState                            
00229239  ZDApp_LeaveCtrlInit                          
00229269  ZDApp_LeaveCtrlSet                           
00229299  ZDApp_StartJoiningCycle                      
002292c9  ZDApp_StopJoiningCycle                       
002292f9  ZDSecMgrAppConfKeyReq                        
00229329  ZDSecMgrEntryLookupExt                       
00229359  afCopyAddress                                
00229389  bdb_calculateCCITT_CRC                       
002293b9  bdb_getRespondentRetry                       
002293e9  bspSpiClockSpeedSet                          
00229419  macPibReset                                  
00229449  macRadioStopScan                             
002295f9  APSME_KeyFwdToChild                          
00229685  AESECBCheckResult                            
002296b1  CCMAuthEncryptCheckResult                    
002296dd  SysCtrlPeripheralDeepSleepDisable            
00229709  SysCtrlPeripheralDisable                     
00229735  SysCtrlPeripheralEnable                      
00229761  SysCtrlPeripheralSleepDisable                
0022978d  ZDApp_NetworkInit                            
002297b9  ZDApp_SetParentAnnceTimer                    
002297e5  ZDO_RegisterForZdoCB                         
00229811  ZDO_UpdateAddrManager                        
0022983d  ZMacGetReq                                   
00229869  bdb_NotifyCommissioningModeStart             
00229895  gp_CreateCmdPayloadMsgList                   
002298ed  macRadioInit                                 
00229919  macRadioSetPanCoordinator                    
00229945  macRadioSetPanID                             
00229971  macRadioSetShortAddr                         
002299f3  ZMacStartReq                                 
00229a47  osal_msg_deallocate                          
00229a71  sAddrCpy                                     
00229a9b  FlashMainPageErase                           
00229aeb  OnBoard_KeyCallback                          
00229b15  RegisterForKeys                              
00229b3d  ZDApp_ResetTimerStart                        
00229b65  ZDSecMgrDeviceValidate                       
00229b8d  ZDSecMgrInitNVKeyTables                      
00229bb5  ZMacSetReq                                   
00229bdd  bdb_setChannel                               
00229c05  macRxAckTxDoneCallback                       
00229c2d  macTxTimestampCallback                       
00229ca5  GP_DataCnf                                   
00229ccb  afRegister                                   
00229cf1  bindingAddrMgsHelperConvertShort             
00229d17  sspAesDecryptHW                              
00229d3d  sspAesEncryptHW                              
00229d65  IntMasterDisable                             
00229d89  IntMasterEnable                              
00229dad  SysTickSetup                                 
00229dd1  UI_ActionBackFromAppMenu                     
00229df5  ZDNwkMgr_ProcessServerDiscRsp                
00229e19  ZDNwkMgr_SetNwkManagerAddr                   
00229e3d  ZDO_Init                                     
00229e61  ZDO_NetworkStatusCB                          
00229e85  ZDSecMgrDeviceValidateRM                     
00229ea9  ZDSecMgrInit                                 
00229ecd  ZMacInit                                     
00229ef1  bdb_CreateRespondentList                     
00229f39  gp_CreateNotificationMsgList                 
00229f5d  gp_ResetProxyBasicTblEntry                   
00229f81  lcdGetStringLength                           
00229fa5  macRxHaltCleanup                             
00229fc9  macTxInit                                    
00229fed  osal_init_system                             
0022a011  zclSampleLight_UpdateLedState                
0022a035  GPIOPinIntStatus                             
0022a057  GPIOPinTypeGPIOInput                         
0022a079  GPIOPinTypeGPIOOutput                        
0022a09b  GPIOPinTypeSSI                               
0022a0bd  SSIBusy                                      
0022a0df  SSIDataGetNonBlocking                        
0022a101  ZDSecMgrDeviceRemoveByExtAddr                
0022a1ab  GPIOPinWrite                                 
0022a1cd  HalAesInit                                   
0022a1ed  HalLcdWriteString                            
0022a20d  ZDSecMgrPermitJoiningTimeout                 
0022a22d  bsp3V3DomainEnable                           
0022a24d  macBackoffTimerReset                         
0022a26d  macCspTxCancelAckTimeoutCallback             
0022a28d  macMcuRandomByte                             
0022a2ad  nwk_globals_init                             
0022a2cd  osal_build_uint16                            
0022a30d  GPIOPinIntDisable                            
0022a32b  GPIOPinIntEnable                             
0022a349  GPIOPortIntRegister                          
0022a367  SysCtrlDelay                                 
0022a385  afFindEndPointDesc                           
0022a3c1  macRadioEnergyDetectStop                     
0022a43d  SysCtrlClockStartSetting                     
0022a459  SysCtrlPowIntClear                           
0022a475  ZDApp_NwkStateUpdateCB                       
0022a491  ZDApp_ResetTimerCancel                       
0022a4ad  ZDO_PermitJoinCB                             
0022a4c9  bdb_exitFindingBindingWStatus                
0022a4e5  macLowLevelInit                              
0022a501  macMcuRecordMaxRssiStart                     
0022a51d  macMcuRecordMaxRssiStop                      
0022a5a9  macTxFrameRetransmit                         
0022a5e1  SSIDataPut                                   
0022a5fb  osalAdjustTimer                              
0022a615  osal_int_disable                             
0022a62f  osal_int_enable                              
0022a649  GPIOIntWakeupDisable                         
0022a661  GPIOIntWakeupEnable                          
0022a679  GPIOPinIntClear                              
0022a691  GPIOPinRead                                  
0022a6a9  HalKeyInit                                   
0022a6c1  HalLedInit                                   
0022a6d9  Hal_Init                                     
0022a6f1  SysTickPeriodSet                             
0022a709  ZDSecMgrAssocDeviceAuth                      
0022a721  bindRemoveEntry                              
0022a739  gp_RegisterCommissioningModeCB               
0022a751  gp_RegisterGPChangeChannelReqCB              
0022a769  gp_RegisterGPChangeChannelReqForBDBCB        
0022a799  macCspTxIntIsr                               
0022a7b1  macRxOnOffInit                               
0022a7c9  macRxTxReset                                 
0022a7e1  osal_memset                                  
0022a7f9  osal_pwrmgr_device                           
0022a811  osal_pwrmgr_init                             
0022a829  _args_main                                   
0022a859  zcl_Init                                     
0022a871  BindSetDefaultNV                             
0022a887  SSIDisable                                   
0022a89d  SSIEnable                                    
0022a8b3  ZDSecMgrDeviceNew                            
0022a8df  osal_msg_send                                
0022a8f5  HalDriverInit                                
0022a909  HalLcdInit                                   
0022a91d  MAC_SrcMatchCheckAllPending                  
0022a931  SSIClockSourceSet                            
0022a945  ZDApp_CoordStartPANIDConflictCB              
0022a959  ZMacAssociateReq                             
0022a96d  ZMacPollReq                                  
0022a981  ZMacSrcMatchAddEntry                         
0022a995  ZMacSrcMatchDeleteEntry                      
0022a9a9  bdb_GenerateInstallCodeCRC                   
0022a9bd  bdb_RegisterBindNotificationCB               
0022a9d1  bdb_RegisterCommissioningStatusCB            
0022a9e5  bdb_RegisterIdentifyTimeChangeCB             
0022a9f9  bdb_getZCLFrameCounter                       
0022aa35  macRadioComputeLQI                           
0022aa49  macRadioSetIEEEAddr                          
0022aa5d  macRxFifoOverflowIsr                         
0022aa71  osalDeleteTimer                              
0022aa85  _register_unlock                             
0022aa8b  _register_lock                               
0022aa93  _nop                                         
0022aa99  strlen                                       
0022aac1  ZMacAssociateRsp                             
0022aad3  ZMacSrcMatchAckAllPending                    
0022aae5  bdb_resetLocalAction                         
0022aaf7  bdb_setFN                                    
0022ab1b  sAddrExtCpy                                  
0022ab2d  zcl_registerForMsg                           
0022ab41  FlashCacheModeGet                            
0022ab51  IntAltMapEnable                              
0022ab61  SysTickEnable                                
0022ab71  SysTickIntDisable                            
0022ab81  SysTickIntEnable                             
0022ab91  ZDSecMgrConfig                               
0022abb1  macRadioTurnOffPower                         
0022abc1  nwk_Status                                   
0022ac0d  ZDO_SyncIndicationCB                         
0022ac1b  ZDSecMgrAuthenticationCheck                  
0022ac29  __TI_decompress_none                         
0022ac37  ssp_HW_KeyInit                               
0022ac45  zclSampleLight_UiActionToggleLight           
0022ac53  CPUcpsid                                     
0022ac5f  CPUcpsie                                     
0022ac6d  SysCtrlReset                                 
0022ac79  ZDConfig_InitDescriptors                     
0022ac85  ZDO_PollConfirmCB                            
0022ac91  ZDSecMgrVerifyKeyInd                         
0022ac9d  ZDiagsUpdateStats                            
0022acb5  bdb_doTrustCenterRequireKeyExchange          
0022acc1  bdb_isDeviceNonFactoryNew                    
0022accd  bdb_setNodeJoinLinkKeyType                   
0022acd9  __TI_zero_init                               
0022ace5  gp_GetHeadNotificationMsg                    
0022acf1  macBackoffTimerGetTrigger                    
0022acfd  macBackoffTimerPeriodIsr                     
0022ad09  macGetBackOffTimerRollover                   
0022ad15  macLowLevelDiags                             
0022ad21  macRadioReset                                
0022ad2d  osalTimerInit                                
0022ad39  osal_GetSystemClock                          
0022ad51  zcl_getRawAFMsg                              
0022ad5d  MAC_CbackCheckPending                        
0022ad67  MT_GPDataCnf                                 
0022ad71  MT_GPDataInd                                 
0022ad7b  MT_GPSecReq                                  
0022ad85  SysTickIntHandler                            
0022ad8f  ZDO_ProcessNodeDescRsp                       
0022ad99  ZDO_ProcessSimpleDescRsp                     
0022ada3  ZMacSrcMatchEnable                           
0022adad  halSleepTimerIsr                             
0022adb7  osal_nv_init                                 
0022adc9  CCMInvAuthDecryptCheckResult                 
0022add9  NLME_PermitJoiningTimeout                    
0022ade1  Onboard_rand                                 
0022adf1  ZDO_ManytoOneFailureIndicationCB             
0022adf9  gp_GetPHeadCmdPayload                        
0022ae01  gp_GetPHeadNotification                      
0022ae09  macBackoffTimerCompareIsr                    
0022ae11  macLowLevelResume                            
0022ae19  macRadioEnergyDetectStart                    
0022ae21  macRadioRandomByte                           
0022ae29  osal_rand                                    
0022ae31  osal_start_system                            
0022ae39  MAC_CbackQueryRetransmit                     
0022ae3d  _system_pre_init                             
0022ae40  lcd_alphabet                                 
0022b018  zclSampleLight_Attrs                         
0022b414  zclGp_Attrs                                  
0022b4a4  zdpMsgProcs                                  
0022b598  bdb_ZclType2Clusters                         
0022ba8c  timeoutValue                                 
0022bb00  gNWK_MAX_DEVICE_LIST                         
0022bb01  gNWK_MAX_SLEEPING_END_DEVICES                
0022bb02  gNWK_MAX_DATABUFS_WAITING                    
0022bb03  gNWK_MAX_DATABUFS_SCHEDULED                  
0022bb04  gNWK_MAX_DATABUFS_CONFIRMED                  
0022bb05  gNWK_MAX_DATABUFS_TOTAL                      
0022bb06  gNWK_INDIRECT_CNT_RTG_TMR                    
0022bb07  gNWK_INDIRECT_MSG_MAX_PER                    
0022bb08  gNWK_INDIRECT_MSG_MAX_ALL                    
0022bb09  gNWK_FREQ_AGILITY_ALL_MAC_ERRS               
0022bb0a  gMAX_NWK_SEC_MATERIAL_TABLE_ENTRIES          
0022bb0c  gNWK_MIN_ROUTER_CHILDREN                     
0022bb0e  gNWK_MIN_ENDDEVICE_CHILDREN                  
0022bb10  gMAX_RTG_ENTRIES                             
0022bb11  gMAX_RTG_SRC_ENTRIES                         
0022bb12  gMAX_RREQ_ENTRIES                            
0022bb13  gMAX_NEIGHBOR_ENTRIES                        
0022bb14  gMAX_SOURCE_ROUTE                            
0022bb15  gMAX_BROADCAST_QUEUED                        
0022bb16  gLINK_DOWN_TRIGGER                           
0022bb17  gGOOD_LINK_COST                              
0022bb18  gMAX_PASSIVE_ACK_CNT                         
0022bb19  gMAX_BCAST                                   
0022bb1a  gNWK_TREE_ALLOCATE_ROUTERADDR_FOR_ENDDEVICE  
0022bb1b  gNWK_CONFLICTED_ADDR_EXPIRY_TIME             
0022bb1c  gMTO_RREQ_LIMIT_TIME                         
0022bb1e  gMTO_ROUTE_EXPIRY_TIME                       
0022bb1f  gDEFAULT_ROUTE_REQUEST_RADIUS                
0022bb20  gDEF_NWK_RADIUS                              
0022bb22  gLINK_STATUS_JITTER_MASK                     
0022bb24  gMAX_NOT_MYCHILD_DEVICES                     
0022bb28  gMAX_NWK_FRAMECOUNTER_CHANGES                
0022bb2c  gNWK_MAX_BINDING_ENTRIES                     
0022bb2d  gMAX_BINDING_CLUSTER_IDS                     
0022bb2e  gBIND_REC_SIZE                               
0022bb30  gAPS_MAX_GROUPS                              
0022bb31  tasksCnt                                     
0022bb32  bdb_ZclType1Clusters                         
0022bb62  ZDP_AF_ENDPOINT                              
0022bb63  zclGp_NumAttributes                          
0022bb64  tasksArr                                     
0022bb90  macRadioDefsTxPwrBare                        
0022bbb2  macTxSlottedDelay                            
0022bd8c  zmacCBSizeTable                              
0022bdaf  sLightOff                                    
0022bdc0  sLightOn                                     
0022bdd1  zclSampleLight_DateCode                      
0022bde2  zclSampleLight_ManufacturerName              
0022bdf3  zclSampleLight_ModelId                       
0022be24  defaultKey                                   
0022be34  defaultTCLinkKey                             
0022be44  zgpSharedKey                                 
0022be54  zclSampleLight_Cmds                          
0022be64  zclSampleLight_UiStatesMain                  
0022be80  zclSampleLight_InClusterList                 
0022bee4  macCfg                                       
0022beec  zclSampleLight_clusterRevision_all           
0022beee  zclSampleLight_HWRevision                    
0022beef  zclSampleLight_ZCLVersion                    
0022bef0  zclSampleLight_PowerSource                   
0022bef1  zclCmdsArraySize                             
0022bef2  zclSampleLight_NumAttributes                 
0022befa  gZDSECMGR_TC_DEVICE_MAX                      
0022befc  gZDSECMGR_TC_DEVICE_IC_MAX                   
0022befe  gZDSECMGR_TC_ATTEMPT_DEFAULT_KEY             
0022bf0c  macIdleSt                                    
0022bf70  macScanningSt                                
0022bfd8  __TI_static_base__                           
0022c1a4  __TI_Handler_Table_Base                      
0022c1b0  __TI_Handler_Table_Limit                     
0022c1c0  __TI_CINIT_Base                              
0022c1d8  __TI_CINIT_Limit                             
0027ffd4  __cca                                        
20004000  g_pfnRAMVectors                              
20005900  AssociatedDevList                            
20005bf4  TCLinkKeyFrmCntr                             
20005dd4  neighborTable                                
20005f94  rtgTable                                     
200060d4  _NIB                                         
20006148  NwkDescList                                  
2000614c  macPib                                       
200061b8  macBeaconDevice                              
200061ec  macDevice                                    
20006218  rtgSrcTable                                  
20006278  macData                                      
20006288  macTaskId                                    
2000629c  macDataTxDelay                               
200062b4  macDataRxBeaconCritical                      
200062b8  macDataTxBeaconComplete                      
200062bc  macDataSetSched                              
200062c0  macDataCheckSched                            
200062c4  macDataCheckTxTime                           
200062c8  macDataBeaconRequeue                         
2000631c  rtDiscTable                                  
2000636c  macPanCoordinator                            
2000636d  macPwr                                       
20006370  macMgmtAction1                               
2000638c  macScanAction                                
200063a4  macMgmtAction2                               
20006404  bcastTable                                   
2000644c  macCoord                                     
200064c8  BindingTable                                 
20006568  ApsLinkKeyFrmCntr                            
2000658c  bcastHoldAckMask                             
200065b0  zdoCBFunc                                    
20006654  pAssocChildAging                             
20006658  pAssocChildTableUpdateTimeout                
2000665c  pNwkNotMyChildListInit                       
20006660  pNwkNotMyChildListAging                      
20006664  pNwkNotMyChildListAdd                        
20006668  pNwkNotMyChildListDelete                     
2000666c  pNwkNotMyChildSendLeave                      
2000668c  gp_TaskID                                    
20006690  dgp_DataIndList                              
20006694  gpTxQueueList                                
20006698  GP_DataCnfGCB                                
2000669c  GP_DataIndGCB                                
200066a0  GP_SecReqGCB                                 
200066a4  rtgSrcRelayList                              
200066d0  bdb_FindingBindingTargetSimpleDesc           
200066e4  notMyChildList                               
200066f8  zclSampleLight_LocationDescription           
2000670c  pAPS_UnBind                                  
20006710  pAPS_GetBind                                 
20006714  pAPS_DataConfirmReflect                      
20006718  pAPS_DataIndReflect                          
2000672c  GP_expireDuplicateFilteringGCB               
20006730  GP_stopCommissioningModeGCB                  
20006734  GP_returnOperationalChannelGCB               
20006738  GP_aliasConflictAnnce                        
20006740  pNwkFreqAgilityScanCfg                       
20006744  pNwkFreqAgilityIncTotalTx                    
20006748  pNwkFreqAgilityIncErrorCnt                   
2000677c  macTxAckIsrTimer                             
2000678c  ZDO_Config_Node_Descriptor                   
2000679a  savedResponseRate                            
200067a8  pnwk_ScanPANChanSelect                       
200067ac  pnwk_ScanPANChanVerify                       
200067b0  pNLME_NetworkFormationConfirm                
200067e4  ZDNwkMgr_MgmtNwkUpdateReq                    
200067f0  aliasConflictAnnce                           
200067fc  bcastHoldHandle                              
20006808  zclSampleLight_DstAddr                       
20006814  ZDAppNwkAddr                                 
2000681e  ZDNwkMgr_MgmtNwkUpdateNotifyAddr             
20006830  NWK_TaskID                                   
20006831  nwkSendMTOReq                                
20006838  saveExtAddr                                  
20006848  nwkFrameCounterChanges                       
2000684c  nwkFrameCounter                              
20006868  ZDO_UseExtendedPANID                         
20006870  aExtendedAddress                             
20006878  pwrmgr_attribute                             
20006880  zgExtendedPANID                              
20006890  apsfProcessAck                               
20006894  apsfSendFragmented                           
20006898  apsfSendOsalMsg                              
200068a4  NLME_ScanFields                              
200068a8  apsGroupTable                                
200068ac  gp_macReq                                    
200068b0  GP_endpointInitGCB                           
200068b4  GP_CheckAnnouncedDeviceGCB                   
200068b8  nwkDataBufQueue                              
200068c4  distributedFrameCounter                      
200068dc  ZDO_Config_Power_Descriptor                  
200068e0  _ScanChannels                                
200068e4  bdbCommissioningProcedureState               
200068e8  epList                                       
200068ec  gp_DataIndList                               
200068f0  osal_qHead                                   
200068f4  runtimeChannel                               
200068f8  tasksEvents                                  
200068fc  timerHead                                    
20006900  zclSampleLight_CurrentLevel32                
20006904  zclSampleLight_Rate32                        
20006908  savedQueuedPollRate                          
2000690a  NLME_PermitJoining                           
2000690c  dGP_StubHandle                               
2000690d  GPEP_Handle                                  
20006912  ZDNwkMgr_TotalTransmissions                  
20006914  ZDNwkMgr_TxFailures                          
20006916  zclSampleLight_IdentifyTime                  
20006918  zclSampleLight_LevelOffTransitionTime        
2000691a  zclSampleLight_LevelOnOffTransitionTime      
2000691c  zclSampleLight_LevelOnTransitionTime         
2000691e  zclSampleLight_LevelRemainingTime            
20006923  rreqCounter                                  
20006927  Hal_KeyIntEnable                             
20006928  Hal_TaskID                                   
20006929  OnboardKeyIntEnable                          
2000692a  ZDAppTaskID                                  
2000692b  ZDApp_LeaveCtrl                              
2000692c  ZDNwkMgr_NewChannel                          
2000692d  ZDSecMgrPermitJoiningEnabled                 
2000692e  ZDSecMgrPermitJoiningTimed                   
2000692f  _tmpRejoinState                              
20006930  bdb_TaskID                                   
20006931  macPhyChannel                                
20006932  macPhyTxPower                                
20006933  macRxActive                                  
20006934  macRxEnableFlags                             
20006935  macRxFilter                                  
20006936  macRxOnFlag                                  
20006937  macRxOutgoingAckFlag                         
20006938  macTxActive                                  
20006939  macTxBe                                      
2000693a  macTxCsmaBackoffDelay                        
2000693b  macTxType                                    
2000693c  nwkStatus                                    
2000693d  zclSampleLight_DeviceEnable                  
2000693e  zclSampleLight_LevelChangeCmd                
2000693f  zclSampleLight_LevelCurrentLevel             
20006940  zclSampleLight_LevelDefaultMoveRate          
20006941  zclSampleLight_LevelLastLevel                
20006942  zclSampleLight_LevelOnLevel                  
20006943  zclSampleLight_NewLevel                      
20006944  zclSampleLight_NewLevelUp                    
20006945  zclSampleLight_OnOff                         
20006946  zclSampleLight_PhysicalEnvironment           
20006947  zclSampleLight_TaskID                        
20006948  zclSampleLight_WithOnOff                     
20006949  zcl_TaskID                                   
2000694a  zgUseDefaultTCLK                             
2000694c  lcdDefaultBuffer                             
20006d4c  macBeacon                                    
20006d6c  macMgmt                                      
20006d70  macBeaconMargin                              
20006d90  macBeaconCoord                               
20006dc8  pMacDataTx                                   
20006dcc  macMain                                      
20006dd8  macActionSet                                 
20006dfc  macStateTbl                                  
20006e28  macReset                                     
20006e44  macDataTxIndirect                            
20006e48  macDataRequeueIndirect                       
20006e4c  zgPollRate                                   
20006e50  zgSavedPollRate                              
20006e54  zgQueuedPollRate                             
20006e56  zgResponsePollRate                           
20006e58  zgRejoinPollRate                             
20006e5c  zgDefaultRejoinBackoff                       
20006e60  zgDefaultRejoinScan                          
20006e64  zgMaxDataRetries                             
20006e65  zgMaxPollFailureRetries                      
20006e68  zgDefaultChannelList                         
20006e6c  zgStackProfile                               
20006e6d  zgIndirectMsgTimeout                         
20006e6e  zgSecurityMode                               
20006e6f  zgSecurePermitJoin                           
20006e70  zgAllowRejoins                               
20006e71  zgAllowInstallCodes                          
20006e72  zgAllowRemoteTCPolicyChange                  
20006e73  zgRouteDiscoveryTime                         
20006e74  zgRouteExpiryTime                            
20006e75  zgMaxBcastRetires                            
20006e76  zgPassiveAckTimeout                          
20006e77  zgBcastDeliveryTime                          
20006e78  zgNwkMode                                    
20006e79  zgConcentratorEnable                         
20006e7a  zgConcentratorDiscoveryTime                  
20006e7b  zgConcentratorRadius                         
20006e7c  zgConcentratorRC                             
20006e7d  zgNwkSrcRtgExpiryTime                        
20006e7e  zgRouterOffAssocCleanup                      
20006e7f  zgNwkLeaveRequestAllowed                     
20006e80  zgNwkParentInformation                       
20006e81  zgNwkEndDeviceTimeoutDefault                 
20006e82  zgNwkEndDeviceLeaveTimeoutDefault            
20006e83  zgEndDeviceTimeoutValue                      
20006e84  zgEndDeviceConfiguration                     
20006e85  zgChildAgingEnable                           
20006e86  zTouchLinkNwkStartRtr                        
20006e87  zgApscMaxFrameRetries                        
20006e88  zgApscAckWaitDurationPolled                  
20006e8a  zgApsAckWaitMultiplier                       
20006e8c  zgApsDefaultMaxBindingTime                   
20006e8e  zgApsUseInsecureJoin                         
20006e8f  zgApsNonMemberRadius                         
20006e90  zgNwkCommissionedNwkAddr                     
20006e92  zgApscDupRejTimeoutInc                       
20006e94  zgApscDupRejTimeoutCount                     
20006e96  zgApsMinDupRejTableSize                      
20006e98  zgPreConfigKeys                              
20006e99  zgApsLinkKeyType                             
20006e9a  zgApsAllowR19Sec                             
20006e9b  zgSwitchCoordKey                             
20006e9c  zgSwitchCoordKeyIndex                        
20006e9e  zgConfigPANID                                
20006ea0  zgDeviceLogicalType                          
20006ea1  zgStartDelay                                 
20006ea2  zgZdoDirectCB                                
20006ea3  zgNwkMgrMinTransmissions                     
20006ea4  zgNwkMgrMode                                 
20006ea5  zgSapiEndpoint                               
20006ea6  _savedRejoinRspAddr                          
20006ee8  bdb_FB_InitiatorCurrentCyclesNumber          
20006eec  bdb_HeadEpDescriptorList                     
20006ef0  bdb_CurrEpDescriptorList                     
20006ef4  pRespondentHead                              
20006ef8  pRespondentCurr                              
20006efc  pRespondentNext                              
20006f00  bdb_initialization                           
20006f01  vDoPrimaryScan                               
20006f02  bdb_ZclTransactionSequenceNumber             
20006f03  touchLinkTargetEnabled                       
20006f14  zclGp_gppMaxProxyTableEntries                
20006f18  pZclGp_ProxyTableEntries                     
20006f1c  zclGp_gppNotificationRetryNumber             
20006f1d  zclGp_gppNotificationRetryTimer              
20006f1e  zclGp_gppMaxSearchCounter                    
20006f20  pZclGp_gppBlockedGPDID                       
20006f24  zclGp_gpSharedSecurityKeyType                
20006f26  zclGp_clusterRevision                        
20006f34  gp_commissioningOptions                      
20006f36  gp_commissioningUnicastAddress               
20006f38  zgGP_InCommissioningMode                     
20006f3a  gp_commissionerAddress                       
20006f3c  gp_tempLogicalChannel                        
20006f3d  zclGp_gppActiveFunctionality                 
20006f63  NLME_AssocPermission                         
20006f64  APS_TaskID                                   
20006f65  APS_Counter                                  
20006f66  AIB_apsUseInsecureJoin                       
20006f67  APS_AllowDataRequests                        
20006f68  AIB_MaxBindingTime                           
20006f6c  AIB_apsTrustCenterAddress                    
20006f70  pAPS_BindingTimeoutCB                        
20006f78  APS_lastDupTime                              
20006f7c  AIB_apsUseExtendedPANID                      
20006f88  pbindAddEntry                                
20006f8c  pbindNumOfEntries                            
20006f90  pbindRemoveDev                               
20006f94  pBindInitNV                                  
20006f98  pBindSetDefaultNV                            
20006f9c  pBindRestoreFromNV                           
20006fa0  pBindWriteNV                                 
20006fa4  zcl_ValidateAttrDataCB                       
20006fa8  zcl_InSeqNum                                 
20006fa9  zcl_TransID                                  
20006fc4  ZDNwkMgr_TaskID                              
20006fc5  ZDNwkMgr_MgmtNwkUpdateNotifyTransSeq         
20006fc6  ZDNwkMgr_UpdateNotifyTimer                   
20006fc8  ZDNwkMgr_NumUpdateNotifySent                 
20006fc9  ZDNwkMgr_WaitingForNotifyConfirm             
20006fcc  pZDNwkMgr_ReportChannelInterference          
20006fd0  pZDNwkMgr_ProcessDataConfirm                 
20006fd4  pZDNwkMgr_EDScanConfirmCB                    
20006fd8  pZDNwkMgr_NetworkReportCB                    
20006fdc  pZDNwkMgr_NetworkUpdateCB                    
20006fe0  macChipVersion                               
20006ff8  nwk_beaconPayloadSize                        
20006ffc  nwk_beaconPayload                            
2000700c  timerUnalignedQ                              
20007010  timerAlignedQ                                
20007020  zdappMgmtNwkDiscReqInProgress                
20007021  continueJoining                              
20007022  FrameCounterUpdated                          
20007024  ZDApp_AutoFindMode_epDesc                    
20007028  devState                                     
20007029  prevDevState                                 
2000702a  devStartMode                                 
2000702b  retryCnt                                     
2000702c  ZDApp_SavedPollRate                          
20007030  ZDApp_NewDeviceList                          
20007034  bdbAttributes                                
2000705c  zclSampleLight_SimpleDesc                    
20007084  requestNewTrustCenterLinkKey                 
20007088  requestLinkKeyTimeout                        
2000708c  ZDSecMgrTCAuthenticated                      
20007090  ZDSecMgrEntries                              
20007094  ZDSecMgrAppKeyType                           
20007095  sLightLevel                                  
200070a6  macSrcMatchIsEnabled                         
200070a7  macSrcMatchIsAckAllPending                   
200070a8  ZDApp_epDesc                                 
200070c4  OSAL_timeSeconds                             
200070c8  ZDP_TransID                                  
200070c9  childIndex                                   
200070d0  ZDP_TxOptions                                
200070d4  zdoMsgCBs                                    
20007108  zclGp_gpLinkKey                              
20007118  zclGp_gpSharedSecurityKey                    
20007128  __TI_cleanup_ptr                             
2000712c  __TI_dtors_ptr                               
20007130  __TI_enable_exit_profile_output              
20007134  APSF_taskID                                  
2000713c  pAPSF_IgnoreBlock                            
20007140  matchED                                      
20007144  apsChannelMask                               
20007148  zdpExternalStateTaskID                       
2000714c  pfnIdentifyTimeChangeCB                      
20007150  pfnBindNotificationCB                        
20007154  bdbIndentifyActiveEndpoint                   
20007155  zclGp_gppFunctionality                       
20007158  _lock                                        
2000715c  _unlock                                      
2000716c  pZMac_AppCallback                            
20007178  zgApsTrustCenterAddr                         
20007180  zgApsUseExtendedPANID                        
2000718f  AF_DataRequestDiscoverRoute                  
20007190  pSspAesEncrypt                               
20007194  g_MasterInterruptDepth                       
20007198  ZMac_ScanBuf                                 
200071a0  main_func_sp                                 
200071a9  g_ui8CurrentAESOp                            
200071ab  macSleepState                                
200071ac  gMIN_TREE_LQI                                
200071ad  zclSampleLight_GroupsNameSupport             
20007f00  __stack                                      
20008000  __STACK_END                                  
20008000  __STACK_TOP                                  
ffffffff  __TI_pprof_out_hndl                          
ffffffff  __TI_prof_data_size                          
ffffffff  __TI_prof_data_start                         
ffffffff  __binit__                                    
ffffffff  __c_args__                                   
ffffffff  binit                                        
UNDEFED   SHT$$INIT_ARRAY$$Base                        
UNDEFED   SHT$$INIT_ARRAY$$Limit                       

[1667 symbols]
